   1              		.cpu cortex-m0
   2              		.fpu softvfp
   3              		.eabi_attribute 20, 1
   4              		.eabi_attribute 21, 1
   5              		.eabi_attribute 23, 3
   6              		.eabi_attribute 24, 1
   7              		.eabi_attribute 25, 1
   8              		.eabi_attribute 26, 1
   9              		.eabi_attribute 30, 6
  10              		.eabi_attribute 34, 0
  11              		.eabi_attribute 18, 4
  12              		.code	16
  13              		.file	"task.c"
  14              		.text
  15              	.Ltext0:
  16              		.cfi_sections	.debug_frame
  17              		.comm	_tad_task_at_flag,4,4
  18              		.section	.text._task_abort_internal,"ax",%progbits
  19              		.align	2
  20              		.global	_task_abort_internal
  21              		.code	16
  22              		.thumb_func
  24              	_task_abort_internal:
  25              	.LFB0:
  26              		.file 1 "../MQXLITE/kernel/task.c"
   1:../MQXLITE/kernel/task.c **** /*HEADER*********************************************************************
   2:../MQXLITE/kernel/task.c ****  *
   3:../MQXLITE/kernel/task.c ****  * Copyright (c) 2008 Freescale Semiconductor;
   4:../MQXLITE/kernel/task.c ****  * All Rights Reserved
   5:../MQXLITE/kernel/task.c ****  *
   6:../MQXLITE/kernel/task.c ****  * Copyright (c) 2004-2008 Embedded Access Inc.;
   7:../MQXLITE/kernel/task.c ****  * All Rights Reserved
   8:../MQXLITE/kernel/task.c ****  *
   9:../MQXLITE/kernel/task.c ****  * Copyright (c) 1989-2008 ARC International;
  10:../MQXLITE/kernel/task.c ****  * All Rights Reserved
  11:../MQXLITE/kernel/task.c ****  *
  12:../MQXLITE/kernel/task.c ****  *****************************************************************************
  13:../MQXLITE/kernel/task.c ****  *
  14:../MQXLITE/kernel/task.c ****  * THIS SOFTWARE IS PROVIDED BY FREESCALE "AS IS" AND ANY EXPRESSED OR
  15:../MQXLITE/kernel/task.c ****  * IMPLIED WARRANTIES, INCLUDING, BUT NOT LIMITED TO, THE IMPLIED WARRANTIES
  16:../MQXLITE/kernel/task.c ****  * OF MERCHANTABILITY AND FITNESS FOR A PARTICULAR PURPOSE ARE DISCLAIMED.
  17:../MQXLITE/kernel/task.c ****  * IN NO EVENT SHALL FREESCALE OR ITS CONTRIBUTORS BE LIABLE FOR ANY DIRECT,
  18:../MQXLITE/kernel/task.c ****  * INDIRECT, INCIDENTAL, SPECIAL, EXEMPLARY, OR CONSEQUENTIAL DAMAGES
  19:../MQXLITE/kernel/task.c ****  * (INCLUDING, BUT NOT LIMITED TO, PROCUREMENT OF SUBSTITUTE GOODS OR
  20:../MQXLITE/kernel/task.c ****  * SERVICES; LOSS OF USE, DATA, OR PROFITS; OR BUSINESS INTERRUPTION)
  21:../MQXLITE/kernel/task.c ****  * HOWEVER CAUSED AND ON ANY THEORY OF LIABILITY, WHETHER IN CONTRACT,
  22:../MQXLITE/kernel/task.c ****  * STRICT LIABILITY, OR TORT (INCLUDING NEGLIGENCE OR OTHERWISE) ARISING
  23:../MQXLITE/kernel/task.c ****  * IN ANY WAY OUT OF THE USE OF THIS SOFTWARE, EVEN IF ADVISED OF
  24:../MQXLITE/kernel/task.c ****  * THE POSSIBILITY OF SUCH DAMAGE.
  25:../MQXLITE/kernel/task.c ****  *
  26:../MQXLITE/kernel/task.c ****  *****************************************************************************
  27:../MQXLITE/kernel/task.c ****  *
  28:../MQXLITE/kernel/task.c ****  * $FileName: task.c$
  29:../MQXLITE/kernel/task.c ****  * $Version : 3.8.0.2$
  30:../MQXLITE/kernel/task.c ****  * $Date    : Feb-27-2012$
  31:../MQXLITE/kernel/task.c ****  *
  32:../MQXLITE/kernel/task.c ****  * Comments:
  33:../MQXLITE/kernel/task.c ****  *
  34:../MQXLITE/kernel/task.c ****  *   This file contains functions of the Task Management component.
  35:../MQXLITE/kernel/task.c ****  *
  36:../MQXLITE/kernel/task.c ****  *END************************************************************************/
  37:../MQXLITE/kernel/task.c **** 
  38:../MQXLITE/kernel/task.c **** #include <string.h>
  39:../MQXLITE/kernel/task.c **** #include "mqx_inc.h"
  40:../MQXLITE/kernel/task.c **** 
  41:../MQXLITE/kernel/task.c **** /*!
  42:../MQXLITE/kernel/task.c ****  * \private
  43:../MQXLITE/kernel/task.c ****  *
  44:../MQXLITE/kernel/task.c ****  * This variable has no use to MQX.
  45:../MQXLITE/kernel/task.c ****  * Its been created for Task Aware Debug module.
  46:../MQXLITE/kernel/task.c ****  */
  47:../MQXLITE/kernel/task.c **** volatile uint_32 _tad_task_at_flag;
  48:../MQXLITE/kernel/task.c **** 
  49:../MQXLITE/kernel/task.c **** /*!
  50:../MQXLITE/kernel/task.c ****  * \private
  51:../MQXLITE/kernel/task.c ****  *
  52:../MQXLITE/kernel/task.c ****  * \brief Makes a task run its task exit handler and then destroys itself.
  53:../MQXLITE/kernel/task.c ****  *
  54:../MQXLITE/kernel/task.c ****  * \param[in] task_id The task id of the task to abort.
  55:../MQXLITE/kernel/task.c ****  * \param[in] user User mode functionality.
  56:../MQXLITE/kernel/task.c ****  *
  57:../MQXLITE/kernel/task.c ****  * \return MQX_OK
  58:../MQXLITE/kernel/task.c ****  * \return MQX_INVALID_TASK_ID
  59:../MQXLITE/kernel/task.c ****  *
  60:../MQXLITE/kernel/task.c ****  * \see _task_abort
  61:../MQXLITE/kernel/task.c ****  */
  62:../MQXLITE/kernel/task.c **** _mqx_uint _task_abort_internal
  63:../MQXLITE/kernel/task.c **** (
  64:../MQXLITE/kernel/task.c ****     _task_id    task_id,
  65:../MQXLITE/kernel/task.c ****     boolean     user
  66:../MQXLITE/kernel/task.c **** )
  67:../MQXLITE/kernel/task.c **** {
  27              		.loc 1 67 0
  28              		.cfi_startproc
  29 0000 80B5     		push	{r7, lr}
  30              	.LCFI0:
  31              		.cfi_def_cfa_offset 8
  32              		.cfi_offset 7, -8
  33              		.cfi_offset 14, -4
  34 0002 8CB0     		sub	sp, sp, #48
  35              	.LCFI1:
  36              		.cfi_def_cfa_offset 56
  37 0004 00AF     		add	r7, sp, #0
  38              	.LCFI2:
  39              		.cfi_def_cfa_register 7
  40 0006 7860     		str	r0, [r7, #4]
  41 0008 3960     		str	r1, [r7]
  68:../MQXLITE/kernel/task.c ****     KERNEL_DATA_STRUCT_PTR kernel_data;
  69:../MQXLITE/kernel/task.c ****     TD_STRUCT_PTR          td_ptr;
  70:../MQXLITE/kernel/task.c ****     pointer                stack_ptr;
  71:../MQXLITE/kernel/task.c ****     _processor_number processor;
  72:../MQXLITE/kernel/task.c **** 
  73:../MQXLITE/kernel/task.c ****     _GET_KERNEL_DATA(kernel_data);
  42              		.loc 1 73 0
  43 000a 5C4B     		ldr	r3, .L13
  44 000c 1B68     		ldr	r3, [r3]
  45 000e FB62     		str	r3, [r7, #44]
  74:../MQXLITE/kernel/task.c ****     _KLOGE2(KLOG_task_abort, task_id);
  75:../MQXLITE/kernel/task.c **** 
  76:../MQXLITE/kernel/task.c ****     if (task_id != MQX_NULL_TASK_ID)
  46              		.loc 1 76 0
  47 0010 7B68     		ldr	r3, [r7, #4]
  48 0012 002B     		cmp	r3, #0
  49 0014 10D0     		beq	.L2
  77:../MQXLITE/kernel/task.c ****     {
  78:../MQXLITE/kernel/task.c ****         processor = PROC_NUMBER_FROM_TASKID(task_id);
  50              		.loc 1 78 0
  51 0016 7B68     		ldr	r3, [r7, #4]
  52 0018 1A0C     		lsr	r2, r3, #16
  53 001a 3B1C     		mov	r3, r7
  54 001c 2A33     		add	r3, r3, #42
  55 001e 1A80     		strh	r2, [r3]
  79:../MQXLITE/kernel/task.c ****         if (processor != (_processor_number) kernel_data->INIT.PROCESSOR_NUMBER)
  56              		.loc 1 79 0
  57 0020 FA6A     		ldr	r2, [r7, #44]
  58 0022 A823     		mov	r3, #168
  59 0024 5B00     		lsl	r3, r3, #1
  60 0026 D358     		ldr	r3, [r2, r3]
  61 0028 9BB2     		uxth	r3, r3
  62 002a 3A1C     		mov	r2, r7
  63 002c 2A32     		add	r2, r2, #42
  64 002e 1288     		ldrh	r2, [r2]
  65 0030 9A42     		cmp	r2, r3
  66 0032 01D0     		beq	.L2
  80:../MQXLITE/kernel/task.c ****         {
  81:../MQXLITE/kernel/task.c **** #if MQX_IS_MULTI_PROCESSOR
  82:../MQXLITE/kernel/task.c ****             if ( kernel_data->IPC != NULL )
  83:../MQXLITE/kernel/task.c ****             {
  84:../MQXLITE/kernel/task.c ****                 _KLOGX2(KLOG_task_abort, MQX_OK);
  85:../MQXLITE/kernel/task.c ****                 return( (*kernel_data->IPC)(FALSE, processor,
  86:../MQXLITE/kernel/task.c ****                                                 KERNEL_MESSAGES, IPC_TASK_ABORT, 1, (_mqx_uint)task
  87:../MQXLITE/kernel/task.c ****             }
  88:../MQXLITE/kernel/task.c ****             else
  89:../MQXLITE/kernel/task.c ****             {
  90:../MQXLITE/kernel/task.c **** #endif
  91:../MQXLITE/kernel/task.c ****             _KLOGX2(KLOG_task_abort, MQX_INVALID_TASK_ID);
  92:../MQXLITE/kernel/task.c ****             return (MQX_INVALID_TASK_ID);
  67              		.loc 1 92 0
  68 0034 1223     		mov	r3, #18
  69 0036 9CE0     		b	.L3
  70              	.L2:
  93:../MQXLITE/kernel/task.c **** #if MQX_IS_MULTI_PROCESSOR
  94:../MQXLITE/kernel/task.c ****         } /* Endif */
  95:../MQXLITE/kernel/task.c **** #endif
  96:../MQXLITE/kernel/task.c ****         }/* Endif */
  97:../MQXLITE/kernel/task.c ****     }/* Endif */
  98:../MQXLITE/kernel/task.c **** 
  99:../MQXLITE/kernel/task.c ****     td_ptr = (TD_STRUCT_PTR) _task_get_td(task_id);
  71              		.loc 1 99 0
  72 0038 7B68     		ldr	r3, [r7, #4]
  73 003a 181C     		mov	r0, r3
  74 003c FFF7FEFF 		bl	_task_get_td
  75 0040 031C     		mov	r3, r0
  76 0042 7B62     		str	r3, [r7, #36]
 100:../MQXLITE/kernel/task.c **** 
 101:../MQXLITE/kernel/task.c **** #if MQX_ENABLE_USER_MODE
 102:../MQXLITE/kernel/task.c ****     /* check template for correct user task parameters */
 103:../MQXLITE/kernel/task.c ****     if (user)
 104:../MQXLITE/kernel/task.c ****     {
 105:../MQXLITE/kernel/task.c ****         if (!(td_ptr->FLAGS & MQX_USER_TASK))
 106:../MQXLITE/kernel/task.c ****         {
 107:../MQXLITE/kernel/task.c ****             return MQX_INVALID_TASK_ID;
 108:../MQXLITE/kernel/task.c ****         }
 109:../MQXLITE/kernel/task.c ****     }
 110:../MQXLITE/kernel/task.c **** #endif
 111:../MQXLITE/kernel/task.c **** 
 112:../MQXLITE/kernel/task.c **** #if MQX_CHECK_ERRORS
 113:../MQXLITE/kernel/task.c ****     if ((td_ptr == NULL) || (td_ptr == SYSTEM_TD_PTR(kernel_data)))
  77              		.loc 1 113 0
  78 0044 7B6A     		ldr	r3, [r7, #36]
  79 0046 002B     		cmp	r3, #0
  80 0048 05D0     		beq	.L4
  81              		.loc 1 113 0 is_stmt 0 discriminator 1
  82 004a FB6A     		ldr	r3, [r7, #44]
  83 004c 1A1C     		mov	r2, r3
  84 004e 4832     		add	r2, r2, #72
  85 0050 7B6A     		ldr	r3, [r7, #36]
  86 0052 9A42     		cmp	r2, r3
  87 0054 01D1     		bne	.L5
  88              	.L4:
 114:../MQXLITE/kernel/task.c ****     {
 115:../MQXLITE/kernel/task.c ****         _KLOGX2(KLOG_task_abort, MQX_INVALID_TASK_ID);
 116:../MQXLITE/kernel/task.c ****         return (MQX_INVALID_TASK_ID);
  89              		.loc 1 116 0 is_stmt 1
  90 0056 1223     		mov	r3, #18
  91 0058 8BE0     		b	.L3
  92              	.L5:
 117:../MQXLITE/kernel/task.c ****     } /* Endif */
 118:../MQXLITE/kernel/task.c **** #endif
 119:../MQXLITE/kernel/task.c **** 
 120:../MQXLITE/kernel/task.c ****     if (td_ptr == kernel_data->ACTIVE_PTR)
  93              		.loc 1 120 0
  94 005a FB6A     		ldr	r3, [r7, #44]
  95 005c DA69     		ldr	r2, [r3, #28]
  96 005e 7B6A     		ldr	r3, [r7, #36]
  97 0060 9A42     		cmp	r2, r3
  98 0062 0FD1     		bne	.L6
 121:../MQXLITE/kernel/task.c ****     {
 122:../MQXLITE/kernel/task.c ****         if (kernel_data->IN_ISR)
  99              		.loc 1 122 0
 100 0064 FB6A     		ldr	r3, [r7, #44]
 101 0066 1B8B     		ldrh	r3, [r3, #24]
 102 0068 002B     		cmp	r3, #0
 103 006a 08D0     		beq	.L7
 123:../MQXLITE/kernel/task.c ****         {
 124:../MQXLITE/kernel/task.c ****             stack_ptr = (pointer) td_ptr->STACK_PTR;
 104              		.loc 1 124 0
 105 006c 7B6A     		ldr	r3, [r7, #36]
 106 006e 5B69     		ldr	r3, [r3, #20]
 107 0070 3B62     		str	r3, [r7, #32]
 125:../MQXLITE/kernel/task.c ****             _PSP_SET_PC_OF_INTERRUPTED_TASK(stack_ptr,
 108              		.loc 1 125 0
 109 0072 FFF7FEFF 		bl	__get_PSP
 110 0076 031C     		mov	r3, r0
 111 0078 414A     		ldr	r2, .L13+4
 112 007a 9A61     		str	r2, [r3, #24]
 113 007c 78E0     		b	.L8
 114              	.L7:
 126:../MQXLITE/kernel/task.c ****                             _task_exit_function_internal);
 127:../MQXLITE/kernel/task.c ****         }
 128:../MQXLITE/kernel/task.c ****         else
 129:../MQXLITE/kernel/task.c ****         {
 130:../MQXLITE/kernel/task.c ****             _task_exit_function_internal();
 115              		.loc 1 130 0
 116 007e FFF7FEFF 		bl	_task_exit_function_internal
 117 0082 75E0     		b	.L8
 118              	.L6:
 131:../MQXLITE/kernel/task.c ****         }/* Endif */
 132:../MQXLITE/kernel/task.c ****     }
 133:../MQXLITE/kernel/task.c ****     else
 134:../MQXLITE/kernel/task.c ****     {
 135:../MQXLITE/kernel/task.c **** 
 136:../MQXLITE/kernel/task.c ****         _int_disable();
 119              		.loc 1 136 0
 120 0084 FFF7FEFF 		bl	_int_disable
 137:../MQXLITE/kernel/task.c ****         /* Task is not running */
 138:../MQXLITE/kernel/task.c ****         stack_ptr = (pointer) td_ptr->STACK_PTR;
 121              		.loc 1 138 0
 122 0088 7B6A     		ldr	r3, [r7, #36]
 123 008a 5B69     		ldr	r3, [r3, #20]
 124 008c 3B62     		str	r3, [r7, #32]
 139:../MQXLITE/kernel/task.c ****         _PSP_SET_PC_OF_BLOCKED_TASK(stack_ptr,
 125              		.loc 1 139 0
 126 008e 3C4A     		ldr	r2, .L13+4
 127 0090 3B6A     		ldr	r3, [r7, #32]
 128 0092 9A63     		str	r2, [r3, #56]
 140:../MQXLITE/kernel/task.c ****                         _task_exit_function_internal);
 141:../MQXLITE/kernel/task.c ****         if (td_ptr->STATE & IS_ON_TIMEOUT_Q)
 129              		.loc 1 141 0
 130 0094 7B6A     		ldr	r3, [r7, #36]
 131 0096 9A68     		ldr	r2, [r3, #8]
 132 0098 8023     		mov	r3, #128
 133 009a 5B00     		lsl	r3, r3, #1
 134 009c 1340     		and	r3, r2
 135 009e 25D0     		beq	.L9
 142:../MQXLITE/kernel/task.c ****         {
 143:../MQXLITE/kernel/task.c ****             /* Remove from time queue (uses NEXT, PREV field) */
 144:../MQXLITE/kernel/task.c ****             _TIME_DEQUEUE(td_ptr, kernel_data);
 136              		.loc 1 144 0
 137 00a0 7B6A     		ldr	r3, [r7, #36]
 138 00a2 9A68     		ldr	r2, [r3, #8]
 139 00a4 8023     		mov	r3, #128
 140 00a6 5B00     		lsl	r3, r3, #1
 141 00a8 1340     		and	r3, r2
 142 00aa 53D0     		beq	.L10
 143              	.LBB2:
 144              		.loc 1 144 0 is_stmt 0 discriminator 1
 145 00ac 7B6A     		ldr	r3, [r7, #36]
 146 00ae 5B68     		ldr	r3, [r3, #4]
 147 00b0 FB61     		str	r3, [r7, #28]
 148 00b2 7B6A     		ldr	r3, [r7, #36]
 149 00b4 1B68     		ldr	r3, [r3]
 150 00b6 BB61     		str	r3, [r7, #24]
 151 00b8 FB69     		ldr	r3, [r7, #28]
 152 00ba BA69     		ldr	r2, [r7, #24]
 153 00bc 1A60     		str	r2, [r3]
 154 00be BB69     		ldr	r3, [r7, #24]
 155 00c0 FA69     		ldr	r2, [r7, #28]
 156 00c2 5A60     		str	r2, [r3, #4]
 157              	.LBE2:
 158 00c4 FB6A     		ldr	r3, [r7, #44]
 159 00c6 2933     		add	r3, r3, #41
 160 00c8 FF33     		add	r3, r3, #255
 161 00ca 1A89     		ldrh	r2, [r3, #8]
 162 00cc 013A     		sub	r2, r2, #1
 163 00ce 92B2     		uxth	r2, r2
 164 00d0 1A81     		strh	r2, [r3, #8]
 165 00d2 7B6A     		ldr	r3, [r7, #36]
 166 00d4 9A68     		ldr	r2, [r3, #8]
 167 00d6 2B4B     		ldr	r3, .L13+8
 168 00d8 1A40     		and	r2, r3
 169 00da 7B6A     		ldr	r3, [r7, #36]
 170 00dc 9A60     		str	r2, [r3, #8]
 171 00de 7B6A     		ldr	r3, [r7, #36]
 172 00e0 9B68     		ldr	r3, [r3, #8]
 173 00e2 0322     		mov	r2, #3
 174 00e4 1A43     		orr	r2, r3
 175 00e6 7B6A     		ldr	r3, [r7, #36]
 176 00e8 9A60     		str	r2, [r3, #8]
 177 00ea 33E0     		b	.L10
 178              	.L9:
 145:../MQXLITE/kernel/task.c ****         }
 146:../MQXLITE/kernel/task.c ****         else if (td_ptr->STATE & TD_IS_ON_QUEUE)
 179              		.loc 1 146 0 is_stmt 1
 180 00ec 7B6A     		ldr	r3, [r7, #36]
 181 00ee 9A68     		ldr	r2, [r3, #8]
 182 00f0 8023     		mov	r3, #128
 183 00f2 9B00     		lsl	r3, r3, #2
 184 00f4 1340     		and	r3, r2
 185 00f6 12D0     		beq	.L11
 186              	.LBB3:
 147:../MQXLITE/kernel/task.c ****         {
 148:../MQXLITE/kernel/task.c ****             _QUEUE_REMOVE(td_ptr->INFO, td_ptr);
 187              		.loc 1 148 0
 188 00f8 7B6A     		ldr	r3, [r7, #36]
 189 00fa 5B68     		ldr	r3, [r3, #4]
 190 00fc 7B61     		str	r3, [r7, #20]
 191 00fe 7B6A     		ldr	r3, [r7, #36]
 192 0100 1B68     		ldr	r3, [r3]
 193 0102 3B61     		str	r3, [r7, #16]
 194 0104 7B69     		ldr	r3, [r7, #20]
 195 0106 3A69     		ldr	r2, [r7, #16]
 196 0108 1A60     		str	r2, [r3]
 197 010a 3B69     		ldr	r3, [r7, #16]
 198 010c 7A69     		ldr	r2, [r7, #20]
 199 010e 5A60     		str	r2, [r3, #4]
 200              	.LBE3:
 201 0110 7B6A     		ldr	r3, [r7, #36]
 202 0112 DB6A     		ldr	r3, [r3, #44]
 203 0114 1A89     		ldrh	r2, [r3, #8]
 204 0116 013A     		sub	r2, r2, #1
 205 0118 92B2     		uxth	r2, r2
 206 011a 1A81     		strh	r2, [r3, #8]
 207 011c 1AE0     		b	.L10
 208              	.L11:
 149:../MQXLITE/kernel/task.c ****         }
 150:../MQXLITE/kernel/task.c ****         else if ((td_ptr->STATE & BLOCKED_ON_AUX_QUEUE) == BLOCKED_ON_AUX_QUEUE)
 209              		.loc 1 150 0
 210 011e 7B6A     		ldr	r3, [r7, #36]
 211 0120 9A68     		ldr	r2, [r3, #8]
 212 0122 194B     		ldr	r3, .L13+12
 213 0124 1A40     		and	r2, r3
 214 0126 184B     		ldr	r3, .L13+12
 215 0128 9A42     		cmp	r2, r3
 216 012a 13D1     		bne	.L10
 217              	.LBB4:
 151:../MQXLITE/kernel/task.c ****         {
 152:../MQXLITE/kernel/task.c ****             /* We need to remove it here because _task_ready() below will
 153:../MQXLITE/kernel/task.c ****              change its state to READY */
 154:../MQXLITE/kernel/task.c ****             _QUEUE_REMOVE(td_ptr->INFO, &td_ptr->AUX_QUEUE);
 218              		.loc 1 154 0
 219 012c 7B6A     		ldr	r3, [r7, #36]
 220 012e 3033     		add	r3, r3, #48
 221 0130 5B68     		ldr	r3, [r3, #4]
 222 0132 FB60     		str	r3, [r7, #12]
 223 0134 7B6A     		ldr	r3, [r7, #36]
 224 0136 3033     		add	r3, r3, #48
 225 0138 1B68     		ldr	r3, [r3]
 226 013a BB60     		str	r3, [r7, #8]
 227 013c FB68     		ldr	r3, [r7, #12]
 228 013e BA68     		ldr	r2, [r7, #8]
 229 0140 1A60     		str	r2, [r3]
 230 0142 BB68     		ldr	r3, [r7, #8]
 231 0144 FA68     		ldr	r2, [r7, #12]
 232 0146 5A60     		str	r2, [r3, #4]
 233              	.LBE4:
 234 0148 7B6A     		ldr	r3, [r7, #36]
 235 014a DB6A     		ldr	r3, [r3, #44]
 236 014c 1A89     		ldrh	r2, [r3, #8]
 237 014e 013A     		sub	r2, r2, #1
 238 0150 92B2     		uxth	r2, r2
 239 0152 1A81     		strh	r2, [r3, #8]
 240              	.L10:
 155:../MQXLITE/kernel/task.c ****         } /* Endif */
 156:../MQXLITE/kernel/task.c ****         if (td_ptr->STATE & IS_BLOCKED)
 241              		.loc 1 156 0
 242 0154 7B6A     		ldr	r3, [r7, #36]
 243 0156 9B68     		ldr	r3, [r3, #8]
 244 0158 1A1C     		mov	r2, r3
 245 015a 0123     		mov	r3, #1
 246 015c 1340     		and	r3, r2
 247 015e DBB2     		uxtb	r3, r3
 248 0160 002B     		cmp	r3, #0
 249 0162 03D0     		beq	.L12
 157:../MQXLITE/kernel/task.c ****         {
 158:../MQXLITE/kernel/task.c ****             _task_ready(td_ptr);
 250              		.loc 1 158 0
 251 0164 7B6A     		ldr	r3, [r7, #36]
 252 0166 181C     		mov	r0, r3
 253 0168 FFF7FEFF 		bl	_task_ready
 254              	.L12:
 159:../MQXLITE/kernel/task.c ****         } /* Endif */
 160:../MQXLITE/kernel/task.c ****         _int_enable();
 255              		.loc 1 160 0
 256 016c FFF7FEFF 		bl	_int_enable
 257              	.L8:
 161:../MQXLITE/kernel/task.c ****     }/* Endif */
 162:../MQXLITE/kernel/task.c **** 
 163:../MQXLITE/kernel/task.c ****     _KLOGX2(KLOG_task_abort, MQX_OK);
 164:../MQXLITE/kernel/task.c ****     return (MQX_OK);
 258              		.loc 1 164 0
 259 0170 0023     		mov	r3, #0
 260              	.L3:
 165:../MQXLITE/kernel/task.c **** }
 261              		.loc 1 165 0
 262 0172 181C     		mov	r0, r3
 263 0174 BD46     		mov	sp, r7
 264 0176 0CB0     		add	sp, sp, #48
 265              		@ sp needed for prologue
 266 0178 80BD     		pop	{r7, pc}
 267              	.L14:
 268 017a C046     		.align	2
 269              	.L13:
 270 017c 00000000 		.word	_mqx_kernel_data
 271 0180 00000000 		.word	_task_exit_function_internal
 272 0184 FFFEFFFF 		.word	-257
 273 0188 01040000 		.word	1025
 274              		.cfi_endproc
 275              	.LFE0:
 277              		.section	.text._task_abort,"ax",%progbits
 278              		.align	2
 279              		.global	_task_abort
 280              		.code	16
 281              		.thumb_func
 283              	_task_abort:
 284              	.LFB1:
 166:../MQXLITE/kernel/task.c **** 
 167:../MQXLITE/kernel/task.c **** /*!
 168:../MQXLITE/kernel/task.c ****  * \brief Makes a task run its task exit handler and then destroys itself.
 169:../MQXLITE/kernel/task.c ****  *
 170:../MQXLITE/kernel/task.c ****  * \param[in] task_id One of the following:
 171:../MQXLITE/kernel/task.c ****  * \n - Task ID of the task to be destroyed.
 172:../MQXLITE/kernel/task.c ****  * \n - MQX_NULL_TASK_ID (Abort the calling task.)
 173:../MQXLITE/kernel/task.c ****  *
 174:../MQXLITE/kernel/task.c ****  * \return MQX_OK
 175:../MQXLITE/kernel/task.c ****  * \return MQX_INVALID_TASK_ID (Task_id does not represent a valid task.)
 176:../MQXLITE/kernel/task.c ****  *
 177:../MQXLITE/kernel/task.c ****  * \see _task_destroy
 178:../MQXLITE/kernel/task.c ****  * \see _task_get_exit_handler
 179:../MQXLITE/kernel/task.c ****  * \see _task_set_exit_handler
 180:../MQXLITE/kernel/task.c ****  */
 181:../MQXLITE/kernel/task.c **** _mqx_uint _task_abort
 182:../MQXLITE/kernel/task.c **** (
 183:../MQXLITE/kernel/task.c ****     _task_id    task_id
 184:../MQXLITE/kernel/task.c **** )
 185:../MQXLITE/kernel/task.c **** {
 285              		.loc 1 185 0
 286              		.cfi_startproc
 287 0000 80B5     		push	{r7, lr}
 288              	.LCFI3:
 289              		.cfi_def_cfa_offset 8
 290              		.cfi_offset 7, -8
 291              		.cfi_offset 14, -4
 292 0002 82B0     		sub	sp, sp, #8
 293              	.LCFI4:
 294              		.cfi_def_cfa_offset 16
 295 0004 00AF     		add	r7, sp, #0
 296              	.LCFI5:
 297              		.cfi_def_cfa_register 7
 298 0006 7860     		str	r0, [r7, #4]
 186:../MQXLITE/kernel/task.c **** #if MQX_ENABLE_USER_MODE && MQX_ENABLE_USER_STDAPI
 187:../MQXLITE/kernel/task.c ****     if (MQX_RUN_IN_USER_MODE)
 188:../MQXLITE/kernel/task.c ****     {
 189:../MQXLITE/kernel/task.c ****         return _usr_task_abort(task_id);
 190:../MQXLITE/kernel/task.c ****     }
 191:../MQXLITE/kernel/task.c **** #endif
 192:../MQXLITE/kernel/task.c **** 
 193:../MQXLITE/kernel/task.c ****     return _task_abort_internal(task_id, FALSE);
 299              		.loc 1 193 0
 300 0008 7B68     		ldr	r3, [r7, #4]
 301 000a 181C     		mov	r0, r3
 302 000c 0021     		mov	r1, #0
 303 000e FFF7FEFF 		bl	_task_abort_internal
 304 0012 031C     		mov	r3, r0
 194:../MQXLITE/kernel/task.c **** }
 305              		.loc 1 194 0
 306 0014 181C     		mov	r0, r3
 307 0016 BD46     		mov	sp, r7
 308 0018 02B0     		add	sp, sp, #8
 309              		@ sp needed for prologue
 310 001a 80BD     		pop	{r7, pc}
 311              		.cfi_endproc
 312              	.LFE1:
 314              		.section	.text._task_create_at,"ax",%progbits
 315              		.align	2
 316              		.global	_task_create_at
 317              		.code	16
 318              		.thumb_func
 320              	_task_create_at:
 321              	.LFB2:
 195:../MQXLITE/kernel/task.c **** 
 196:../MQXLITE/kernel/task.c **** #if MQX_ENABLE_USER_MODE
 197:../MQXLITE/kernel/task.c **** 
 198:../MQXLITE/kernel/task.c **** /*!
 199:../MQXLITE/kernel/task.c ****  * \brief Makes a task run its task exit handler and then destroys itself.
 200:../MQXLITE/kernel/task.c ****  *
 201:../MQXLITE/kernel/task.c ****  * This function is an equivalent to the _task_abort() API call but it can be
 202:../MQXLITE/kernel/task.c ****  * executed from within the User task or other code running in the CPU User mode.
 203:../MQXLITE/kernel/task.c ****  * Parameters passed to this function by pointer are required to meet the memory
 204:../MQXLITE/kernel/task.c ****  * protection requirements as described in the parameter list below.
 205:../MQXLITE/kernel/task.c ****  *
 206:../MQXLITE/kernel/task.c ****  * \param[in] task_id One of the following:
 207:../MQXLITE/kernel/task.c ****  * \n - Task ID of the task to be destroyed.
 208:../MQXLITE/kernel/task.c ****  * \n - MQX_NULL_TASK_ID (Abort the calling task.)
 209:../MQXLITE/kernel/task.c ****  *
 210:../MQXLITE/kernel/task.c ****  * \return MQX_OK
 211:../MQXLITE/kernel/task.c ****  * \return MQX_INVALID_TASK_ID
 212:../MQXLITE/kernel/task.c ****  *
 213:../MQXLITE/kernel/task.c ****  * \see _task_abort
 214:../MQXLITE/kernel/task.c ****  * \see _usr_task_destroy
 215:../MQXLITE/kernel/task.c ****  */
 216:../MQXLITE/kernel/task.c **** _mqx_uint _usr_task_abort
 217:../MQXLITE/kernel/task.c **** (
 218:../MQXLITE/kernel/task.c ****     _task_id    task_id
 219:../MQXLITE/kernel/task.c **** )
 220:../MQXLITE/kernel/task.c **** {
 221:../MQXLITE/kernel/task.c ****     MQX_API_CALL_PARAMS params = {(uint_32)task_id, 0, 0, 0, 0};
 222:../MQXLITE/kernel/task.c ****     return _mqx_api_call(MQX_API_TASK_ABORT, &params);
 223:../MQXLITE/kernel/task.c **** }
 224:../MQXLITE/kernel/task.c **** 
 225:../MQXLITE/kernel/task.c **** #endif /* MQX_ENABLE_USER_MODE */
 226:../MQXLITE/kernel/task.c **** 
 227:../MQXLITE/kernel/task.c **** #if !MQX_LITE_VERSION_NUMBER
 228:../MQXLITE/kernel/task.c **** /*!
 229:../MQXLITE/kernel/task.c ****  * \private
 230:../MQXLITE/kernel/task.c ****  *
 231:../MQXLITE/kernel/task.c ****  * \brief Creates the task and make it ready.
 232:../MQXLITE/kernel/task.c ****  *
 233:../MQXLITE/kernel/task.c ****  * \param[in] processor_number One of the following:
 234:../MQXLITE/kernel/task.c ****  * \n - Processor number of the processor where the task is to be created.
 235:../MQXLITE/kernel/task.c ****  * \n - 0 (Create on the local processor.)
 236:../MQXLITE/kernel/task.c ****  * \param[in] template_index One of the following:
 237:../MQXLITE/kernel/task.c ****  * \n - Index of the task template in the processor's task template list to use
 238:../MQXLITE/kernel/task.c ****  * for the child task.
 239:../MQXLITE/kernel/task.c ****  * \n - 0 (Use the task template that create_parameter defines.)
 240:../MQXLITE/kernel/task.c ****  * \param[in] parameter Pointer:
 241:../MQXLITE/kernel/task.c ****  * \n - Template_index is not 0 (Pointer to the parameter that MQX passes to the
 242:../MQXLITE/kernel/task.c ****  * child task.)
 243:../MQXLITE/kernel/task.c ****  * \n - Template_index is 0 (Pointer to the task template.)
 244:../MQXLITE/kernel/task.c ****  * \param[in] user User mode functionality.
 245:../MQXLITE/kernel/task.c ****  *
 246:../MQXLITE/kernel/task.c ****  * \return Task ID of the child task (Success.)
 247:../MQXLITE/kernel/task.c ****  * \return MQX_NULL_TASK_ID
 248:../MQXLITE/kernel/task.c ****  *
 249:../MQXLITE/kernel/task.c ****  * \warning If the child is on another processor, blocks the creator until the
 250:../MQXLITE/kernel/task.c ****  * child is created.
 251:../MQXLITE/kernel/task.c ****  * \warning On failure, _task_set_error() is called to set the the following task
 252:../MQXLITE/kernel/task.c ****  * error codes:
 253:../MQXLITE/kernel/task.c ****  * \n - MQX_INVALID_PROCESSOR_NUMBER (Processor_number is not one of the allowed
 254:../MQXLITE/kernel/task.c ****  * processor numbers.)
 255:../MQXLITE/kernel/task.c ****  * \n - MQX_NO_TASK_TEMPLATE (Template_index is not in the task template list.)
 256:../MQXLITE/kernel/task.c ****  * \n - MQX_OUT_OF_MEMORY (MQX cannot allocate memory for the task data structures.)
 257:../MQXLITE/kernel/task.c ****  * \warning For _task_create(): If the child is on the same processor, preempts
 258:../MQXLITE/kernel/task.c ****  * the creator if the
 259:../MQXLITE/kernel/task.c ****  * child is a higher priority.
 260:../MQXLITE/kernel/task.c ****  *
 261:../MQXLITE/kernel/task.c ****  * \see _task_create
 262:../MQXLITE/kernel/task.c ****  * \see _task_create_blocked
 263:../MQXLITE/kernel/task.c ****  * \see _task_create_at
 264:../MQXLITE/kernel/task.c ****  * \see _usr_task_create
 265:../MQXLITE/kernel/task.c ****  */
 266:../MQXLITE/kernel/task.c **** _task_id _task_create_internal
 267:../MQXLITE/kernel/task.c **** (
 268:../MQXLITE/kernel/task.c ****     _processor_number   processor_number,
 269:../MQXLITE/kernel/task.c ****     _mqx_uint           template_index,
 270:../MQXLITE/kernel/task.c ****     uint_32             parameter,
 271:../MQXLITE/kernel/task.c ****     boolean             user
 272:../MQXLITE/kernel/task.c **** )
 273:../MQXLITE/kernel/task.c **** {
 274:../MQXLITE/kernel/task.c ****     KERNEL_DATA_STRUCT_PTR   kernel_data;
 275:../MQXLITE/kernel/task.c ****     TD_STRUCT_PTR            td_ptr;
 276:../MQXLITE/kernel/task.c **** #if MQX_IS_MULTI_PROCESSOR
 277:../MQXLITE/kernel/task.c ****     TASK_TEMPLATE_STRUCT_PTR task_template_ptr;
 278:../MQXLITE/kernel/task.c ****     boolean                  blocking;
 279:../MQXLITE/kernel/task.c **** #endif
 280:../MQXLITE/kernel/task.c ****     _task_id                 result = MQX_NULL_TASK_ID;
 281:../MQXLITE/kernel/task.c **** 
 282:../MQXLITE/kernel/task.c ****     _GET_KERNEL_DATA(kernel_data);
 283:../MQXLITE/kernel/task.c ****     _KLOGE4(KLOG_task_create, processor_number, template_index, parameter);
 284:../MQXLITE/kernel/task.c **** 
 285:../MQXLITE/kernel/task.c **** #if MQX_CHECK_ERRORS
 286:../MQXLITE/kernel/task.c ****     if (template_index & SYSTEM_TASK_FLAG)
 287:../MQXLITE/kernel/task.c ****     {
 288:../MQXLITE/kernel/task.c ****         _task_set_error(MQX_INVALID_TEMPLATE_INDEX);
 289:../MQXLITE/kernel/task.c ****         _KLOGX3(KLOG_task_create, MQX_NULL_TASK_ID, MQX_INVALID_TEMPLATE_INDEX);
 290:../MQXLITE/kernel/task.c ****         return MQX_NULL_TASK_ID;
 291:../MQXLITE/kernel/task.c ****     }
 292:../MQXLITE/kernel/task.c **** #endif
 293:../MQXLITE/kernel/task.c **** 
 294:../MQXLITE/kernel/task.c **** #if MQX_ENABLE_USER_MODE
 295:../MQXLITE/kernel/task.c ****     if (user)
 296:../MQXLITE/kernel/task.c ****     {
 297:../MQXLITE/kernel/task.c ****         if (kernel_data->INIT.MAX_USER_TASK_COUNT && kernel_data->USR_TASK_RUN_COUNT >= kernel_data
 298:../MQXLITE/kernel/task.c ****         {
 299:../MQXLITE/kernel/task.c ****             _task_set_error(MQX_TOO_MANY_USER_TASKS);
 300:../MQXLITE/kernel/task.c ****             _KLOGX3(KLOG_task_create, MQX_NULL_TASK_ID, MQX_TOO_MANY_USER_TASKS);
 301:../MQXLITE/kernel/task.c ****             return MQX_NULL_TASK_ID;
 302:../MQXLITE/kernel/task.c ****         }
 303:../MQXLITE/kernel/task.c **** 
 304:../MQXLITE/kernel/task.c ****         kernel_data->USR_TASK_RUN_COUNT++;
 305:../MQXLITE/kernel/task.c ****     }
 306:../MQXLITE/kernel/task.c **** #endif /* MQX_ENABLE_USER_MODE */
 307:../MQXLITE/kernel/task.c ****     if (processor_number == 0)
 308:../MQXLITE/kernel/task.c ****     {
 309:../MQXLITE/kernel/task.c ****         processor_number = (_processor_number) kernel_data->INIT.PROCESSOR_NUMBER;
 310:../MQXLITE/kernel/task.c **** #if MQX_CHECK_ERRORS
 311:../MQXLITE/kernel/task.c ****     }
 312:../MQXLITE/kernel/task.c ****     else if (processor_number > MQX_MAX_PROCESSOR_NUMBER)
 313:../MQXLITE/kernel/task.c ****     {
 314:../MQXLITE/kernel/task.c ****         _task_set_error(MQX_INVALID_PROCESSOR_NUMBER);
 315:../MQXLITE/kernel/task.c ****         _KLOGX3(KLOG_task_create, MQX_NULL_TASK_ID, MQX_INVALID_PROCESSOR_NUMBER);
 316:../MQXLITE/kernel/task.c ****         return MQX_NULL_TASK_ID;
 317:../MQXLITE/kernel/task.c **** #endif
 318:../MQXLITE/kernel/task.c ****     }
 319:../MQXLITE/kernel/task.c ****     else if (processor_number != kernel_data->INIT.PROCESSOR_NUMBER)
 320:../MQXLITE/kernel/task.c ****     {
 321:../MQXLITE/kernel/task.c **** #if MQX_ENABLE_USER_MODE
 322:../MQXLITE/kernel/task.c ****         if (user)
 323:../MQXLITE/kernel/task.c ****         {
 324:../MQXLITE/kernel/task.c ****             /* usermode don't support multiprocessor functionality */
 325:../MQXLITE/kernel/task.c ****             _task_set_error(MQX_INVALID_PROCESSOR_NUMBER);
 326:../MQXLITE/kernel/task.c ****             _KLOGX3(KLOG_task_create, MQX_NULL_TASK_ID, MQX_INVALID_PROCESSOR_NUMBER);
 327:../MQXLITE/kernel/task.c ****             return MQX_NULL_TASK_ID;
 328:../MQXLITE/kernel/task.c ****         }
 329:../MQXLITE/kernel/task.c **** #endif
 330:../MQXLITE/kernel/task.c **** 
 331:../MQXLITE/kernel/task.c **** #if MQX_IS_MULTI_PROCESSOR
 332:../MQXLITE/kernel/task.c ****         if ( kernel_data->IPC != NULL )
 333:../MQXLITE/kernel/task.c ****         {
 334:../MQXLITE/kernel/task.c **** #if MQX_TASK_CREATION_BLOCKS
 335:../MQXLITE/kernel/task.c ****             blocking = TRUE;
 336:../MQXLITE/kernel/task.c **** #else
 337:../MQXLITE/kernel/task.c ****             blocking = FALSE;
 338:../MQXLITE/kernel/task.c **** #endif
 339:../MQXLITE/kernel/task.c ****             if (template_index == 0)
 340:../MQXLITE/kernel/task.c ****             {
 341:../MQXLITE/kernel/task.c ****                 /* Task template is pointed to by the parameter */
 342:../MQXLITE/kernel/task.c ****                 task_template_ptr = (TASK_TEMPLATE_STRUCT_PTR)parameter;
 343:../MQXLITE/kernel/task.c ****                 (*kernel_data->IPC)(blocking, processor_number,
 344:../MQXLITE/kernel/task.c ****                                 KERNEL_MESSAGES,
 345:../MQXLITE/kernel/task.c ****                                 IPC_TASK_CREATE_WITH_TEMPLATE,
 346:../MQXLITE/kernel/task.c ****                                 8L,
 347:../MQXLITE/kernel/task.c ****                                 task_template_ptr->TASK_TEMPLATE_INDEX,
 348:../MQXLITE/kernel/task.c ****                                 task_template_ptr->TASK_ADDRESS,
 349:../MQXLITE/kernel/task.c ****                                 task_template_ptr->TASK_STACKSIZE,
 350:../MQXLITE/kernel/task.c ****                                 task_template_ptr->TASK_PRIORITY,
 351:../MQXLITE/kernel/task.c ****                                 task_template_ptr->TASK_NAME,
 352:../MQXLITE/kernel/task.c ****                                 task_template_ptr->TASK_ATTRIBUTES,
 353:../MQXLITE/kernel/task.c ****                                 task_template_ptr->CREATION_PARAMETER,
 354:../MQXLITE/kernel/task.c ****                                 task_template_ptr->DEFAULT_TIME_SLICE);
 355:../MQXLITE/kernel/task.c ****             }
 356:../MQXLITE/kernel/task.c ****             else
 357:../MQXLITE/kernel/task.c ****             {
 358:../MQXLITE/kernel/task.c ****                 (*kernel_data->IPC)(blocking, processor_number,
 359:../MQXLITE/kernel/task.c ****                                 KERNEL_MESSAGES, IPC_TASK_CREATE, 3,
 360:../MQXLITE/kernel/task.c ****                                 processor_number, template_index, parameter);
 361:../MQXLITE/kernel/task.c ****             } /* Endif */
 362:../MQXLITE/kernel/task.c ****             return(kernel_data->ACTIVE_PTR->INFO);
 363:../MQXLITE/kernel/task.c ****         }
 364:../MQXLITE/kernel/task.c ****         else
 365:../MQXLITE/kernel/task.c ****         {
 366:../MQXLITE/kernel/task.c **** #endif
 367:../MQXLITE/kernel/task.c ****         _task_set_error(MQX_INVALID_PROCESSOR_NUMBER);
 368:../MQXLITE/kernel/task.c ****         _KLOGX3(KLOG_task_create, MQX_NULL_TASK_ID, MQX_INVALID_PROCESSOR_NUMBER);
 369:../MQXLITE/kernel/task.c ****         return MQX_NULL_TASK_ID;
 370:../MQXLITE/kernel/task.c **** #if MQX_IS_MULTI_PROCESSOR
 371:../MQXLITE/kernel/task.c ****     } /* Endif */
 372:../MQXLITE/kernel/task.c **** #endif
 373:../MQXLITE/kernel/task.c ****     } /* Endif */
 374:../MQXLITE/kernel/task.c **** 
 375:../MQXLITE/kernel/task.c ****     td_ptr = _task_build_internal(template_index, parameter, NULL, 0, user);
 376:../MQXLITE/kernel/task.c **** 
 377:../MQXLITE/kernel/task.c ****     if (td_ptr != NULL)
 378:../MQXLITE/kernel/task.c ****     {
 379:../MQXLITE/kernel/task.c ****         result = td_ptr->TASK_ID;
 380:../MQXLITE/kernel/task.c ****         _INT_DISABLE();
 381:../MQXLITE/kernel/task.c ****         _task_ready_internal(td_ptr);
 382:../MQXLITE/kernel/task.c ****         _INT_ENABLE();
 383:../MQXLITE/kernel/task.c ****         _CHECK_RUN_SCHEDULER(); /* Let a higher priority task run */
 384:../MQXLITE/kernel/task.c ****     }
 385:../MQXLITE/kernel/task.c **** 
 386:../MQXLITE/kernel/task.c ****     _KLOGX3(KLOG_task_create, result, kernel_data->ACTIVE_PTR->TASK_ERROR_CODE);
 387:../MQXLITE/kernel/task.c **** 
 388:../MQXLITE/kernel/task.c ****     return (result);
 389:../MQXLITE/kernel/task.c **** }
 390:../MQXLITE/kernel/task.c **** 
 391:../MQXLITE/kernel/task.c **** /*!
 392:../MQXLITE/kernel/task.c ****  * \brief Creates the task and make it ready.
 393:../MQXLITE/kernel/task.c ****  *
 394:../MQXLITE/kernel/task.c ****  * \param[in] processor_number One of the following:
 395:../MQXLITE/kernel/task.c ****  * \n - Processor number of the processor where the task is to be created.
 396:../MQXLITE/kernel/task.c ****  * \n - 0 (Create on the local processor.)
 397:../MQXLITE/kernel/task.c ****  * \param[in] template_index   One of the following:
 398:../MQXLITE/kernel/task.c ****  * \n - Index of the task template in the processor's task template list to use
 399:../MQXLITE/kernel/task.c ****  * for the child task.
 400:../MQXLITE/kernel/task.c ****  * \n - 0 (Use the task template that create_parameter defines.)
 401:../MQXLITE/kernel/task.c ****  * \param[in] parameter        Pointer:
 402:../MQXLITE/kernel/task.c ****  * \n - Template_index is not 0 (Pointer to the parameter that MQX passes to the
 403:../MQXLITE/kernel/task.c ****  * child task.)
 404:../MQXLITE/kernel/task.c ****  * \n - Template_index is 0 (Pointer to the task template.)
 405:../MQXLITE/kernel/task.c ****  *
 406:../MQXLITE/kernel/task.c ****  * \return Task ID of the child task (Success.)
 407:../MQXLITE/kernel/task.c ****  * \return MQX_NULL_TASK_ID (Failure.)
 408:../MQXLITE/kernel/task.c ****  *
 409:../MQXLITE/kernel/task.c ****  * \warning If the child is on another processor, blocks the creator until the
 410:../MQXLITE/kernel/task.c ****  * child is created.
 411:../MQXLITE/kernel/task.c ****  * \warning On failure, _task_set_error() is called to set the the following task
 412:../MQXLITE/kernel/task.c ****  * error codes:
 413:../MQXLITE/kernel/task.c ****  * \n - MQX_INVALID_PROCESSOR_NUMBER (Processor_number is not one of the allowed
 414:../MQXLITE/kernel/task.c ****  * processor numbers.)
 415:../MQXLITE/kernel/task.c ****  * \n - MQX_NO_TASK_TEMPLATE (Template_index is not in the task template list.)
 416:../MQXLITE/kernel/task.c ****  * \n - MQX_OUT_OF_MEMORY (MQX cannot allocate memory for the task data structures.)
 417:../MQXLITE/kernel/task.c ****  * \warning If the child is on the same processor, preempts the creator if the
 418:../MQXLITE/kernel/task.c ****  * child is a higher priority.
 419:../MQXLITE/kernel/task.c ****  *
 420:../MQXLITE/kernel/task.c ****  * \see _task_create_blocked
 421:../MQXLITE/kernel/task.c ****  * \see _task_create_at
 422:../MQXLITE/kernel/task.c ****  * \see _task_abort
 423:../MQXLITE/kernel/task.c ****  * \see _task_block
 424:../MQXLITE/kernel/task.c ****  * \see _task_destroy
 425:../MQXLITE/kernel/task.c ****  * \see _task_get_parameter
 426:../MQXLITE/kernel/task.c ****  * \see _task_get_parameter_for
 427:../MQXLITE/kernel/task.c ****  * \see _task_set_parameter
 428:../MQXLITE/kernel/task.c ****  * \see _task_set_parameter_for
 429:../MQXLITE/kernel/task.c ****  * \see _task_ready
 430:../MQXLITE/kernel/task.c ****  * \see _task_set_error
 431:../MQXLITE/kernel/task.c ****  */
 432:../MQXLITE/kernel/task.c **** _task_id _task_create
 433:../MQXLITE/kernel/task.c **** (
 434:../MQXLITE/kernel/task.c ****     _processor_number   processor_number,
 435:../MQXLITE/kernel/task.c ****     _mqx_uint           template_index,
 436:../MQXLITE/kernel/task.c ****     uint_32             parameter
 437:../MQXLITE/kernel/task.c **** )
 438:../MQXLITE/kernel/task.c **** {
 439:../MQXLITE/kernel/task.c **** #if MQX_ENABLE_USER_MODE && MQX_ENABLE_USER_STDAPI
 440:../MQXLITE/kernel/task.c ****     if (MQX_RUN_IN_USER_MODE)
 441:../MQXLITE/kernel/task.c ****     {
 442:../MQXLITE/kernel/task.c ****         return _usr_task_create(processor_number, template_index, parameter);
 443:../MQXLITE/kernel/task.c ****     }
 444:../MQXLITE/kernel/task.c **** #endif
 445:../MQXLITE/kernel/task.c ****     return _task_create_internal(processor_number, template_index, parameter, FALSE);
 446:../MQXLITE/kernel/task.c **** }
 447:../MQXLITE/kernel/task.c **** #endif /* MQX_LITE_VERSION_NUMBER */
 448:../MQXLITE/kernel/task.c **** 
 449:../MQXLITE/kernel/task.c **** #if MQX_ENABLE_USER_MODE
 450:../MQXLITE/kernel/task.c **** 
 451:../MQXLITE/kernel/task.c **** /*!
 452:../MQXLITE/kernel/task.c ****  * \brief Creates the task and make it ready.
 453:../MQXLITE/kernel/task.c ****  *
 454:../MQXLITE/kernel/task.c ****  * This function is an equivalent to the _task_create() API call but it can be
 455:../MQXLITE/kernel/task.c ****  * executed from within the User task or other code running in the CPU User mode.
 456:../MQXLITE/kernel/task.c ****  * Parameters passed to this function by pointer are required to meet the memory
 457:../MQXLITE/kernel/task.c ****  * protection requirements as described in the parameter list below.
 458:../MQXLITE/kernel/task.c ****  *
 459:../MQXLITE/kernel/task.c ****  * \param[in] processor_number One of the following:
 460:../MQXLITE/kernel/task.c ****  * \n - Processor number of the processor where the task is to be created.
 461:../MQXLITE/kernel/task.c ****  * \n - 0 (Create on the local processor.)
 462:../MQXLITE/kernel/task.c ****  * \param[in] template_index   One of the following:
 463:../MQXLITE/kernel/task.c ****  * \n - Index of the task template in the processor's task template list to use
 464:../MQXLITE/kernel/task.c ****  * for the child task.
 465:../MQXLITE/kernel/task.c ****  * \n - 0 (Use the task template that create_parameter defines.)
 466:../MQXLITE/kernel/task.c ****  * \param[in] parameter        Pointer:
 467:../MQXLITE/kernel/task.c ****  * \n - Template_index is not 0 (Pointer to the parameter that MQX passes to the
 468:../MQXLITE/kernel/task.c ****  * child task.)
 469:../MQXLITE/kernel/task.c ****  * \n - Template_index is 0 (Pointer to the task template.)
 470:../MQXLITE/kernel/task.c ****  *
 471:../MQXLITE/kernel/task.c ****  * \return Task ID of the child task (Success.)
 472:../MQXLITE/kernel/task.c ****  * \return MQX_NULL_TASK_ID (Failure.)
 473:../MQXLITE/kernel/task.c ****  *
 474:../MQXLITE/kernel/task.c ****  * \warning If the child is on another processor, blocks the creator until the
 475:../MQXLITE/kernel/task.c ****  * child is created.
 476:../MQXLITE/kernel/task.c ****  * \warning On failure, _task_set_error() is called to set the the following task
 477:../MQXLITE/kernel/task.c ****  * error codes:
 478:../MQXLITE/kernel/task.c ****  * \n - MQX_INVALID_PROCESSOR_NUMBER (Processor_number is not one of the allowed
 479:../MQXLITE/kernel/task.c ****  * processor numbers.)
 480:../MQXLITE/kernel/task.c ****  * \n - MQX_NO_TASK_TEMPLATE (Template_index is not in the task template list.)
 481:../MQXLITE/kernel/task.c ****  * \n - MQX_OUT_OF_MEMORY (MQX cannot allocate memory for the task data structures.)
 482:../MQXLITE/kernel/task.c ****  * \warning If the child is on the same processor, preempts the creator if the
 483:../MQXLITE/kernel/task.c ****  * child is a higher priority.
 484:../MQXLITE/kernel/task.c ****  *
 485:../MQXLITE/kernel/task.c ****  * \see _task_create
 486:../MQXLITE/kernel/task.c ****  * \see _usr_task_abort
 487:../MQXLITE/kernel/task.c ****  * \see _usr_task_destroy
 488:../MQXLITE/kernel/task.c ****  * \see _usr_task_ready
 489:../MQXLITE/kernel/task.c ****  * \see _usr_task_set_error
 490:../MQXLITE/kernel/task.c ****  */
 491:../MQXLITE/kernel/task.c **** _task_id _usr_task_create
 492:../MQXLITE/kernel/task.c **** (
 493:../MQXLITE/kernel/task.c ****     _processor_number   processor_number,
 494:../MQXLITE/kernel/task.c ****     _mqx_uint           template_index,
 495:../MQXLITE/kernel/task.c ****     uint_32             parameter
 496:../MQXLITE/kernel/task.c **** )
 497:../MQXLITE/kernel/task.c **** {
 498:../MQXLITE/kernel/task.c ****     MQX_API_CALL_PARAMS params =
 499:../MQXLITE/kernel/task.c ****         {(uint_32)processor_number, (uint_32)template_index, (uint_32)parameter, 0, 0};
 500:../MQXLITE/kernel/task.c **** 
 501:../MQXLITE/kernel/task.c ****     return _mqx_api_call(MQX_API_TASK_CREATE, &params);
 502:../MQXLITE/kernel/task.c **** }
 503:../MQXLITE/kernel/task.c **** 
 504:../MQXLITE/kernel/task.c **** #endif /* MQX_ENABLE_USER_MODE */
 505:../MQXLITE/kernel/task.c **** 
 506:../MQXLITE/kernel/task.c **** #if !MQX_LITE_VERSION_NUMBER
 507:../MQXLITE/kernel/task.c **** /*!
 508:../MQXLITE/kernel/task.c ****  * \brief Creates the task, but do not make it ready.
 509:../MQXLITE/kernel/task.c ****  *
 510:../MQXLITE/kernel/task.c ****  * \param[in] processor_number One of the following:
 511:../MQXLITE/kernel/task.c ****  * \n - Processor number of the processor where the task is to be created.
 512:../MQXLITE/kernel/task.c ****  * \n - 0 (Create on the local processor.)
 513:../MQXLITE/kernel/task.c ****  * \param[in] template_index   One of the following:
 514:../MQXLITE/kernel/task.c ****  * \n - Index of the task template in the processor's task template list to use
 515:../MQXLITE/kernel/task.c ****  * for the child task.
 516:../MQXLITE/kernel/task.c ****  * \n - 0 (Use the task template that create_parameter defines.)
 517:../MQXLITE/kernel/task.c ****  * \param[in] parameter        Pointer:
 518:../MQXLITE/kernel/task.c ****  * \n - Template_index is not 0 (Pointer to the parameter that MQX passes to the
 519:../MQXLITE/kernel/task.c ****  * child task.)
 520:../MQXLITE/kernel/task.c ****  * \n - Template_index is 0 (Pointer to the task template.)
 521:../MQXLITE/kernel/task.c ****  *
 522:../MQXLITE/kernel/task.c ****  * \return Task ID of the child task (Success.)
 523:../MQXLITE/kernel/task.c ****  * \return MQX_NULL_TASK_ID (Failure.)
 524:../MQXLITE/kernel/task.c ****  *
 525:../MQXLITE/kernel/task.c ****  * \warning If the child is on another processor, blocks the creator until the
 526:../MQXLITE/kernel/task.c ****  * child is created.
 527:../MQXLITE/kernel/task.c ****  * \warning On failure, _task_set_error() is called to set the the following task
 528:../MQXLITE/kernel/task.c ****  * error codes:
 529:../MQXLITE/kernel/task.c ****  * \n - MQX_INVALID_PROCESSOR_NUMBER (Processor_number is not one of the allowed
 530:../MQXLITE/kernel/task.c ****  * processor numbers.)
 531:../MQXLITE/kernel/task.c ****  * \n - MQX_NO_TASK_TEMPLATE (Template_index is not in the task template list.)
 532:../MQXLITE/kernel/task.c ****  * \n - MQX_OUT_OF_MEMORY (MQX cannot allocate memory for the task data structures.)
 533:../MQXLITE/kernel/task.c ****  * \warning If the child is on the same processor, preempts the creator if the
 534:../MQXLITE/kernel/task.c ****  * child is a higher priority.
 535:../MQXLITE/kernel/task.c ****  *
 536:../MQXLITE/kernel/task.c ****  * \see _task_create
 537:../MQXLITE/kernel/task.c ****  * \see _task_create_at
 538:../MQXLITE/kernel/task.c ****  * \see _task_abort
 539:../MQXLITE/kernel/task.c ****  * \see _task_block
 540:../MQXLITE/kernel/task.c ****  * \see _task_destroy
 541:../MQXLITE/kernel/task.c ****  * \see _task_get_parameter
 542:../MQXLITE/kernel/task.c ****  * \see _task_get_parameter_for
 543:../MQXLITE/kernel/task.c ****  * \see _task_set_parameter
 544:../MQXLITE/kernel/task.c ****  * \see _task_set_parameter_for
 545:../MQXLITE/kernel/task.c ****  * \see _task_ready
 546:../MQXLITE/kernel/task.c ****  * \see _task_set_error
 547:../MQXLITE/kernel/task.c ****  */
 548:../MQXLITE/kernel/task.c **** _task_id _task_create_blocked
 549:../MQXLITE/kernel/task.c **** (
 550:../MQXLITE/kernel/task.c ****     _processor_number   processor_number,
 551:../MQXLITE/kernel/task.c ****     _mqx_uint           template_index,
 552:../MQXLITE/kernel/task.c ****     uint_32             parameter
 553:../MQXLITE/kernel/task.c **** )
 554:../MQXLITE/kernel/task.c **** { /* Body */
 555:../MQXLITE/kernel/task.c ****     KERNEL_DATA_STRUCT_PTR   kernel_data;
 556:../MQXLITE/kernel/task.c ****     TD_STRUCT_PTR            td_ptr;
 557:../MQXLITE/kernel/task.c **** #if MQX_IS_MULTI_PROCESSOR
 558:../MQXLITE/kernel/task.c ****     TASK_TEMPLATE_STRUCT_PTR task_template_ptr;
 559:../MQXLITE/kernel/task.c ****     boolean                  blocking;
 560:../MQXLITE/kernel/task.c **** #endif
 561:../MQXLITE/kernel/task.c ****     _task_id                 result;
 562:../MQXLITE/kernel/task.c **** 
 563:../MQXLITE/kernel/task.c ****     _GET_KERNEL_DATA(kernel_data);
 564:../MQXLITE/kernel/task.c ****     _KLOGE4(KLOG_task_create_block, processor_number, template_index, parameter);
 565:../MQXLITE/kernel/task.c **** 
 566:../MQXLITE/kernel/task.c **** #if MQX_CHECK_ERRORS
 567:../MQXLITE/kernel/task.c ****     if (template_index & SYSTEM_TASK_FLAG)
 568:../MQXLITE/kernel/task.c ****     {
 569:../MQXLITE/kernel/task.c ****         _task_set_error(MQX_INVALID_TEMPLATE_INDEX);
 570:../MQXLITE/kernel/task.c ****         _KLOGX3(KLOG_task_create_block, MQX_NULL_TASK_ID,
 571:../MQXLITE/kernel/task.c ****                         MQX_INVALID_TEMPLATE_INDEX);
 572:../MQXLITE/kernel/task.c ****         return MQX_NULL_TASK_ID;
 573:../MQXLITE/kernel/task.c ****     } /* Endif */
 574:../MQXLITE/kernel/task.c **** #endif
 575:../MQXLITE/kernel/task.c **** 
 576:../MQXLITE/kernel/task.c ****     if (processor_number == 0)
 577:../MQXLITE/kernel/task.c ****     {
 578:../MQXLITE/kernel/task.c ****         processor_number = (_processor_number) kernel_data->INIT.PROCESSOR_NUMBER;
 579:../MQXLITE/kernel/task.c **** #if MQX_CHECK_ERRORS
 580:../MQXLITE/kernel/task.c ****     }
 581:../MQXLITE/kernel/task.c ****     else if (processor_number > MQX_MAX_PROCESSOR_NUMBER)
 582:../MQXLITE/kernel/task.c ****     {
 583:../MQXLITE/kernel/task.c ****         _task_set_error(MQX_INVALID_PROCESSOR_NUMBER);
 584:../MQXLITE/kernel/task.c ****         _KLOGX3(KLOG_task_create_block, MQX_NULL_TASK_ID,
 585:../MQXLITE/kernel/task.c ****                         MQX_INVALID_PROCESSOR_NUMBER);
 586:../MQXLITE/kernel/task.c ****         return MQX_NULL_TASK_ID;
 587:../MQXLITE/kernel/task.c **** #endif
 588:../MQXLITE/kernel/task.c ****     }
 589:../MQXLITE/kernel/task.c ****     else if (processor_number != kernel_data->INIT.PROCESSOR_NUMBER)
 590:../MQXLITE/kernel/task.c ****     {
 591:../MQXLITE/kernel/task.c **** #if MQX_IS_MULTI_PROCESSOR
 592:../MQXLITE/kernel/task.c ****         if ( kernel_data->IPC != NULL )
 593:../MQXLITE/kernel/task.c ****         {
 594:../MQXLITE/kernel/task.c **** #if MQX_TASK_CREATION_BLOCKS
 595:../MQXLITE/kernel/task.c ****             blocking = TRUE;
 596:../MQXLITE/kernel/task.c **** #else
 597:../MQXLITE/kernel/task.c ****             blocking = FALSE;
 598:../MQXLITE/kernel/task.c **** #endif
 599:../MQXLITE/kernel/task.c ****             if (template_index == 0)
 600:../MQXLITE/kernel/task.c ****             {
 601:../MQXLITE/kernel/task.c ****                 /* Task template is pointed to by the parameter */
 602:../MQXLITE/kernel/task.c ****                 task_template_ptr = (TASK_TEMPLATE_STRUCT_PTR)parameter;
 603:../MQXLITE/kernel/task.c ****                 (*kernel_data->IPC)(blocking, processor_number,
 604:../MQXLITE/kernel/task.c ****                                 KERNEL_MESSAGES, IPC_TASK_CREATE_WITH_TEMPLATE, 8L,
 605:../MQXLITE/kernel/task.c ****                                 task_template_ptr->TASK_TEMPLATE_INDEX,
 606:../MQXLITE/kernel/task.c ****                                 task_template_ptr->TASK_ADDRESS,
 607:../MQXLITE/kernel/task.c ****                                 task_template_ptr->TASK_STACKSIZE,
 608:../MQXLITE/kernel/task.c ****                                 task_template_ptr->TASK_PRIORITY,
 609:../MQXLITE/kernel/task.c ****                                 task_template_ptr->TASK_NAME,
 610:../MQXLITE/kernel/task.c ****                                 task_template_ptr->TASK_ATTRIBUTES,
 611:../MQXLITE/kernel/task.c ****                                 task_template_ptr->CREATION_PARAMETER,
 612:../MQXLITE/kernel/task.c ****                                 task_template_ptr->DEFAULT_TIME_SLICE
 613:../MQXLITE/kernel/task.c ****                 );
 614:../MQXLITE/kernel/task.c ****             }
 615:../MQXLITE/kernel/task.c ****             else
 616:../MQXLITE/kernel/task.c ****             {
 617:../MQXLITE/kernel/task.c ****                 (*kernel_data->IPC)(blocking, processor_number,
 618:../MQXLITE/kernel/task.c ****                                 KERNEL_MESSAGES, IPC_TASK_CREATE, 3,
 619:../MQXLITE/kernel/task.c ****                                 processor_number, template_index, parameter);
 620:../MQXLITE/kernel/task.c ****             } /* Endif */
 621:../MQXLITE/kernel/task.c ****             return(kernel_data->ACTIVE_PTR->INFO);
 622:../MQXLITE/kernel/task.c ****         }
 623:../MQXLITE/kernel/task.c ****         else
 624:../MQXLITE/kernel/task.c ****         {
 625:../MQXLITE/kernel/task.c **** #endif
 626:../MQXLITE/kernel/task.c ****         _task_set_error(MQX_INVALID_PROCESSOR_NUMBER);
 627:../MQXLITE/kernel/task.c ****         _KLOGX3(KLOG_task_create_block, MQX_NULL_TASK_ID,
 628:../MQXLITE/kernel/task.c ****                         MQX_INVALID_PROCESSOR_NUMBER);
 629:../MQXLITE/kernel/task.c ****         return MQX_NULL_TASK_ID;
 630:../MQXLITE/kernel/task.c **** #if MQX_IS_MULTI_PROCESSOR
 631:../MQXLITE/kernel/task.c ****     } /* Endif */
 632:../MQXLITE/kernel/task.c **** #endif
 633:../MQXLITE/kernel/task.c ****     } /* Endif */
 634:../MQXLITE/kernel/task.c **** 
 635:../MQXLITE/kernel/task.c ****     td_ptr = _task_build_internal(template_index, parameter, NULL, 0, FALSE);
 636:../MQXLITE/kernel/task.c ****     if (td_ptr != NULL)
 637:../MQXLITE/kernel/task.c ****     {
 638:../MQXLITE/kernel/task.c ****         td_ptr->STATE = BLOCKED;
 639:../MQXLITE/kernel/task.c ****         result = td_ptr->TASK_ID;
 640:../MQXLITE/kernel/task.c ****     }
 641:../MQXLITE/kernel/task.c ****     else
 642:../MQXLITE/kernel/task.c ****     {
 643:../MQXLITE/kernel/task.c ****         result = MQX_NULL_TASK_ID;
 644:../MQXLITE/kernel/task.c ****     }/* Endif */
 645:../MQXLITE/kernel/task.c **** 
 646:../MQXLITE/kernel/task.c ****     _KLOGX3(KLOG_task_create_block, result,
 647:../MQXLITE/kernel/task.c ****                     kernel_data->ACTIVE_PTR->TASK_ERROR_CODE);
 648:../MQXLITE/kernel/task.c **** 
 649:../MQXLITE/kernel/task.c ****     return (result);
 650:../MQXLITE/kernel/task.c **** 
 651:../MQXLITE/kernel/task.c **** } /* Endbody */
 652:../MQXLITE/kernel/task.c **** #endif /* MQX_LITE_VERSION_NUMBER */
 653:../MQXLITE/kernel/task.c **** 
 654:../MQXLITE/kernel/task.c **** /*!
 655:../MQXLITE/kernel/task.c ****  * \brief Creates the task with the stack location specified.
 656:../MQXLITE/kernel/task.c ****  *
 657:../MQXLITE/kernel/task.c ****  * \param[in] processor_number One of the following:
 658:../MQXLITE/kernel/task.c ****  * \n - Processor number of the processor where the task is to be created.
 659:../MQXLITE/kernel/task.c ****  * \n - 0 (Create on the local processor.)
 660:../MQXLITE/kernel/task.c ****  * \param[in] template_index   One of the following:
 661:../MQXLITE/kernel/task.c ****  * \n - Index of the task template in the processor's task template list to use
 662:../MQXLITE/kernel/task.c ****  * for the child task.
 663:../MQXLITE/kernel/task.c ****  * \n - 0 (Use the task template that create_parameter defines.)
 664:../MQXLITE/kernel/task.c ****  * \param[in] parameter        Pointer:
 665:../MQXLITE/kernel/task.c ****  * \n - Template_index is not 0 (Pointer to the parameter that MQX passes to the
 666:../MQXLITE/kernel/task.c ****  * child task.)
 667:../MQXLITE/kernel/task.c ****  * \n - Template_index is 0 (Pointer to the task template.)
 668:../MQXLITE/kernel/task.c ****  * \param[in] stack_ptr        Pointer to where the stack and TD are to be created.
 669:../MQXLITE/kernel/task.c ****  * \param[in] stack_size       The size of the stack.
 670:../MQXLITE/kernel/task.c ****  *
 671:../MQXLITE/kernel/task.c ****  * \return Task ID of the child task (Success.)
 672:../MQXLITE/kernel/task.c ****  * \return MQX_NULL_TASK_ID (Failure.)
 673:../MQXLITE/kernel/task.c ****  *
 674:../MQXLITE/kernel/task.c ****  * \warning If the child is on another processor, blocks the creator until the
 675:../MQXLITE/kernel/task.c ****  * child is created.
 676:../MQXLITE/kernel/task.c ****  * \warning On failure, _task_set_error() is called to set the following task
 677:../MQXLITE/kernel/task.c ****  * error codes:
 678:../MQXLITE/kernel/task.c ****  * \n Task Error Codes
 679:../MQXLITE/kernel/task.c ****  * \n - MQX_INVALID_PROCESSOR_NUMBER (Processor_number is not one of the allowed
 680:../MQXLITE/kernel/task.c ****  * processor numbers.)
 681:../MQXLITE/kernel/task.c ****  * \n - MQX_NO_TASK_TEMPLATE (Template_index is not in the task template list.)
 682:../MQXLITE/kernel/task.c ****  * \n - MQX_OUT_OF_MEMORY (MQX cannot allocate memory for the task data structures.)
 683:../MQXLITE/kernel/task.c ****  *
 684:../MQXLITE/kernel/task.c ****  * \see _task_create
 685:../MQXLITE/kernel/task.c ****  * \see _task_create_blocked
 686:../MQXLITE/kernel/task.c ****  * \see _task_abort
 687:../MQXLITE/kernel/task.c ****  * \see _task_block
 688:../MQXLITE/kernel/task.c ****  * \see _task_destroy
 689:../MQXLITE/kernel/task.c ****  * \see _task_get_parameter
 690:../MQXLITE/kernel/task.c ****  * \see _task_get_parameter_for
 691:../MQXLITE/kernel/task.c ****  * \see _task_set_parameter
 692:../MQXLITE/kernel/task.c ****  * \see _task_set_parameter_for
 693:../MQXLITE/kernel/task.c ****  * \see _task_ready
 694:../MQXLITE/kernel/task.c ****  * \see _task_set_error
 695:../MQXLITE/kernel/task.c ****  */
 696:../MQXLITE/kernel/task.c **** _task_id _task_create_at
 697:../MQXLITE/kernel/task.c **** (
 698:../MQXLITE/kernel/task.c ****     _processor_number   processor_number,
 699:../MQXLITE/kernel/task.c ****     _mqx_uint           template_index,
 700:../MQXLITE/kernel/task.c ****     uint_32             parameter,
 701:../MQXLITE/kernel/task.c ****     pointer             stack_ptr,
 702:../MQXLITE/kernel/task.c ****     _mem_size           stack_size
 703:../MQXLITE/kernel/task.c **** )
 704:../MQXLITE/kernel/task.c **** { /* Body */
 322              		.loc 1 704 0
 323              		.cfi_startproc
 324 0000 90B5     		push	{r4, r7, lr}
 325              	.LCFI6:
 326              		.cfi_def_cfa_offset 12
 327              		.cfi_offset 4, -12
 328              		.cfi_offset 7, -8
 329              		.cfi_offset 14, -4
 330 0002 8BB0     		sub	sp, sp, #44
 331              	.LCFI7:
 332              		.cfi_def_cfa_offset 56
 333 0004 02AF     		add	r7, sp, #8
 334              	.LCFI8:
 335              		.cfi_def_cfa 7, 48
 336 0006 B960     		str	r1, [r7, #8]
 337 0008 7A60     		str	r2, [r7, #4]
 338 000a 3B60     		str	r3, [r7]
 339 000c 3B1C     		mov	r3, r7
 340 000e 0E33     		add	r3, r3, #14
 341 0010 021C     		add	r2, r0, #0
 342 0012 1A80     		strh	r2, [r3]
 705:../MQXLITE/kernel/task.c ****     KERNEL_DATA_STRUCT_PTR kernel_data;
 706:../MQXLITE/kernel/task.c ****     TD_STRUCT_PTR          td_ptr;
 707:../MQXLITE/kernel/task.c ****     _task_id               result;
 708:../MQXLITE/kernel/task.c **** 
 709:../MQXLITE/kernel/task.c ****     _GET_KERNEL_DATA(kernel_data);
 343              		.loc 1 709 0
 344 0014 2B4B     		ldr	r3, .L25
 345 0016 1B68     		ldr	r3, [r3]
 346 0018 BB61     		str	r3, [r7, #24]
 710:../MQXLITE/kernel/task.c ****     _KLOGE5(KLOG_task_create_at, processor_number, template_index, parameter,
 711:../MQXLITE/kernel/task.c ****                     stack_ptr);
 712:../MQXLITE/kernel/task.c **** 
 713:../MQXLITE/kernel/task.c **** #if MQX_CHECK_ERRORS
 714:../MQXLITE/kernel/task.c ****     if (template_index & SYSTEM_TASK_FLAG)
 347              		.loc 1 714 0
 348 001a BB68     		ldr	r3, [r7, #8]
 349 001c 002B     		cmp	r3, #0
 350 001e 04DA     		bge	.L17
 715:../MQXLITE/kernel/task.c ****     {
 716:../MQXLITE/kernel/task.c ****         _task_set_error(MQX_INVALID_TEMPLATE_INDEX);
 351              		.loc 1 716 0
 352 0020 1520     		mov	r0, #21
 353 0022 FFF7FEFF 		bl	_task_set_error
 717:../MQXLITE/kernel/task.c ****         _KLOGX3(KLOG_task_create_at, MQX_NULL_TASK_ID,
 718:../MQXLITE/kernel/task.c ****                         MQX_INVALID_TEMPLATE_INDEX);
 719:../MQXLITE/kernel/task.c ****         return MQX_NULL_TASK_ID;
 354              		.loc 1 719 0
 355 0026 0023     		mov	r3, #0
 356 0028 47E0     		b	.L18
 357              	.L17:
 720:../MQXLITE/kernel/task.c ****     } /* Endif */
 721:../MQXLITE/kernel/task.c **** #endif
 722:../MQXLITE/kernel/task.c **** 
 723:../MQXLITE/kernel/task.c **** #if MQX_CHECK_ERRORS
 724:../MQXLITE/kernel/task.c ****     if (processor_number != 0)
 358              		.loc 1 724 0
 359 002a 3B1C     		mov	r3, r7
 360 002c 0E33     		add	r3, r3, #14
 361 002e 1B88     		ldrh	r3, [r3]
 362 0030 002B     		cmp	r3, #0
 363 0032 04D0     		beq	.L19
 725:../MQXLITE/kernel/task.c ****     {
 726:../MQXLITE/kernel/task.c ****         _task_set_error(MQX_INVALID_PROCESSOR_NUMBER);
 364              		.loc 1 726 0
 365 0034 1320     		mov	r0, #19
 366 0036 FFF7FEFF 		bl	_task_set_error
 727:../MQXLITE/kernel/task.c ****         _KLOGX3(KLOG_task_create_at, MQX_NULL_TASK_ID,
 728:../MQXLITE/kernel/task.c ****                         MQX_INVALID_PROCESSOR_NUMBER);
 729:../MQXLITE/kernel/task.c ****         return MQX_NULL_TASK_ID;
 367              		.loc 1 729 0
 368 003a 0023     		mov	r3, #0
 369 003c 3DE0     		b	.L18
 370              	.L19:
 730:../MQXLITE/kernel/task.c ****     } /* Endif */
 731:../MQXLITE/kernel/task.c **** #endif
 732:../MQXLITE/kernel/task.c **** 
 733:../MQXLITE/kernel/task.c ****     td_ptr = _task_build_internal(template_index, parameter, stack_ptr, stack_size, FALSE);
 371              		.loc 1 733 0
 372 003e B868     		ldr	r0, [r7, #8]
 373 0040 7968     		ldr	r1, [r7, #4]
 374 0042 3A68     		ldr	r2, [r7]
 375 0044 3B6B     		ldr	r3, [r7, #48]
 376 0046 0024     		mov	r4, #0
 377 0048 0094     		str	r4, [sp]
 378 004a FFF7FEFF 		bl	_task_build_internal
 379 004e 031C     		mov	r3, r0
 380 0050 7B61     		str	r3, [r7, #20]
 734:../MQXLITE/kernel/task.c ****     if (td_ptr != NULL)
 381              		.loc 1 734 0
 382 0052 7B69     		ldr	r3, [r7, #20]
 383 0054 002B     		cmp	r3, #0
 384 0056 28D0     		beq	.L20
 735:../MQXLITE/kernel/task.c ****     {
 736:../MQXLITE/kernel/task.c ****         result = td_ptr->TASK_ID;
 385              		.loc 1 736 0
 386 0058 7B69     		ldr	r3, [r7, #20]
 387 005a DB68     		ldr	r3, [r3, #12]
 388 005c FB61     		str	r3, [r7, #28]
 737:../MQXLITE/kernel/task.c ****         _INT_DISABLE();
 389              		.loc 1 737 0
 390 005e BB69     		ldr	r3, [r7, #24]
 391 0060 DB69     		ldr	r3, [r3, #28]
 392 0062 9B6C     		ldr	r3, [r3, #72]
 393 0064 002B     		cmp	r3, #0
 394 0066 00D1     		bne	.L21
 395              		.loc 1 737 0 is_stmt 0 discriminator 1
 396              	@ 737 "../MQXLITE/kernel/task.c" 1
 397 0068 72B6     		cpsid i
 398              	@ 0 "" 2
 399              		.code	16
 400              	.L21:
 401              		.loc 1 737 0 discriminator 2
 402 006a BB69     		ldr	r3, [r7, #24]
 403 006c DB69     		ldr	r3, [r3, #28]
 404 006e 9A6C     		ldr	r2, [r3, #72]
 405 0070 0132     		add	r2, r2, #1
 406 0072 9A64     		str	r2, [r3, #72]
 738:../MQXLITE/kernel/task.c ****         _task_ready_internal(td_ptr);
 407              		.loc 1 738 0 is_stmt 1 discriminator 2
 408 0074 7B69     		ldr	r3, [r7, #20]
 409 0076 181C     		mov	r0, r3
 410 0078 FFF7FEFF 		bl	_task_ready_internal
 739:../MQXLITE/kernel/task.c ****         _INT_ENABLE();
 411              		.loc 1 739 0 discriminator 2
 412 007c BB69     		ldr	r3, [r7, #24]
 413 007e DB69     		ldr	r3, [r3, #28]
 414 0080 9B6C     		ldr	r3, [r3, #72]
 415 0082 002B     		cmp	r3, #0
 416 0084 0ED0     		beq	.L22
 417              		.loc 1 739 0 is_stmt 0 discriminator 1
 418 0086 BB69     		ldr	r3, [r7, #24]
 419 0088 DB69     		ldr	r3, [r3, #28]
 420 008a 9A6C     		ldr	r2, [r3, #72]
 421 008c 013A     		sub	r2, r2, #1
 422 008e 9A64     		str	r2, [r3, #72]
 423 0090 9B6C     		ldr	r3, [r3, #72]
 424 0092 002B     		cmp	r3, #0
 425 0094 06D1     		bne	.L22
 426              		.loc 1 739 0 discriminator 2
 427 0096 BB69     		ldr	r3, [r7, #24]
 428 0098 1B8B     		ldrh	r3, [r3, #24]
 429 009a 002B     		cmp	r3, #0
 430 009c 01D0     		beq	.L23
 431              		.loc 1 739 0 discriminator 3
 432              	@ 739 "../MQXLITE/kernel/task.c" 1
 433 009e 62B6     		cpsie i
 434              	@ 0 "" 2
 435              		.code	16
 436 00a0 00E0     		b	.L22
 437              	.L23:
 438              		.loc 1 739 0 discriminator 4
 439              	@ 739 "../MQXLITE/kernel/task.c" 1
 440 00a2 62B6     		cpsie i
 441              	@ 0 "" 2
 442              		.code	16
 443              	.L22:
 740:../MQXLITE/kernel/task.c ****         _CHECK_RUN_SCHEDULER(); /* Let a higher priority task run */
 444              		.loc 1 740 0 is_stmt 1
 445 00a4 FFF7FEFF 		bl	_sched_check_scheduler_internal
 446 00a8 01E0     		b	.L24
 447              	.L20:
 741:../MQXLITE/kernel/task.c ****     }
 742:../MQXLITE/kernel/task.c ****     else
 743:../MQXLITE/kernel/task.c ****     {
 744:../MQXLITE/kernel/task.c ****         result = MQX_NULL_TASK_ID;
 448              		.loc 1 744 0
 449 00aa 0023     		mov	r3, #0
 450 00ac FB61     		str	r3, [r7, #28]
 451              	.L24:
 745:../MQXLITE/kernel/task.c ****     }/* Endif */
 746:../MQXLITE/kernel/task.c **** 
 747:../MQXLITE/kernel/task.c ****     _KLOGX3(KLOG_task_create_at, result,
 748:../MQXLITE/kernel/task.c ****                     kernel_data->ACTIVE_PTR->TASK_ERROR_CODE);
 749:../MQXLITE/kernel/task.c **** 
 750:../MQXLITE/kernel/task.c ****     _tad_task_at_flag++;
 452              		.loc 1 750 0
 453 00ae 064B     		ldr	r3, .L25+4
 454 00b0 1B68     		ldr	r3, [r3]
 455 00b2 5A1C     		add	r2, r3, #1
 456 00b4 044B     		ldr	r3, .L25+4
 457 00b6 1A60     		str	r2, [r3]
 751:../MQXLITE/kernel/task.c **** 
 752:../MQXLITE/kernel/task.c ****     return (result);
 458              		.loc 1 752 0
 459 00b8 FB69     		ldr	r3, [r7, #28]
 460              	.L18:
 753:../MQXLITE/kernel/task.c **** 
 754:../MQXLITE/kernel/task.c **** } /* Endbody */
 461              		.loc 1 754 0
 462 00ba 181C     		mov	r0, r3
 463 00bc BD46     		mov	sp, r7
 464 00be 09B0     		add	sp, sp, #36
 465              		@ sp needed for prologue
 466 00c0 90BD     		pop	{r4, r7, pc}
 467              	.L26:
 468 00c2 C046     		.align	2
 469              	.L25:
 470 00c4 00000000 		.word	_mqx_kernel_data
 471 00c8 00000000 		.word	_tad_task_at_flag
 472              		.cfi_endproc
 473              	.LFE2:
 475              		.section	.text._task_destroy_internal,"ax",%progbits
 476              		.align	2
 477              		.global	_task_destroy_internal
 478              		.code	16
 479              		.thumb_func
 481              	_task_destroy_internal:
 482              	.LFB3:
 755:../MQXLITE/kernel/task.c **** 
 756:../MQXLITE/kernel/task.c **** /*!
 757:../MQXLITE/kernel/task.c ****  * \private
 758:../MQXLITE/kernel/task.c ****  *
 759:../MQXLITE/kernel/task.c ****  * \brief Destroys the task.
 760:../MQXLITE/kernel/task.c ****  *
 761:../MQXLITE/kernel/task.c ****  * \param[in] task_id One of the following:
 762:../MQXLITE/kernel/task.c ****  * \n - Task ID of the task to be destroyed.
 763:../MQXLITE/kernel/task.c ****  * \n - MQX_NULL_TASK_ID (Destroy the calling task.)
 764:../MQXLITE/kernel/task.c ****  * \param[in] user    User mode functionality.
 765:../MQXLITE/kernel/task.c ****  *
 766:../MQXLITE/kernel/task.c ****  * \return MQX_OK
 767:../MQXLITE/kernel/task.c ****  * \return MQX_INVALID_TASK_ID
 768:../MQXLITE/kernel/task.c ****  *
 769:../MQXLITE/kernel/task.c ****  * \see _task_destroy
 770:../MQXLITE/kernel/task.c ****  * \see _usr_task_destroy
 771:../MQXLITE/kernel/task.c ****  */
 772:../MQXLITE/kernel/task.c **** _mqx_uint _task_destroy_internal
 773:../MQXLITE/kernel/task.c **** (
 774:../MQXLITE/kernel/task.c ****     _task_id task_id,
 775:../MQXLITE/kernel/task.c ****     boolean  user
 776:../MQXLITE/kernel/task.c **** )
 777:../MQXLITE/kernel/task.c **** {
 483              		.loc 1 777 0
 484              		.cfi_startproc
 485 0000 80B5     		push	{r7, lr}
 486              	.LCFI9:
 487              		.cfi_def_cfa_offset 8
 488              		.cfi_offset 7, -8
 489              		.cfi_offset 14, -4
 490 0002 94B0     		sub	sp, sp, #80
 491              	.LCFI10:
 492              		.cfi_def_cfa_offset 88
 493 0004 00AF     		add	r7, sp, #0
 494              	.LCFI11:
 495              		.cfi_def_cfa_register 7
 496 0006 7860     		str	r0, [r7, #4]
 497 0008 3960     		str	r1, [r7]
 778:../MQXLITE/kernel/task.c ****     KERNEL_DATA_STRUCT_PTR   kernel_data;
 779:../MQXLITE/kernel/task.c ****     TD_STRUCT_PTR            victim_ptr;
 780:../MQXLITE/kernel/task.c ****     TD_STRUCT_PTR            td_ptr;
 781:../MQXLITE/kernel/task.c ****     _processor_number        processor;
 782:../MQXLITE/kernel/task.c ****     uint_16                  task_num;
 783:../MQXLITE/kernel/task.c **** 
 784:../MQXLITE/kernel/task.c ****     _GET_KERNEL_DATA(kernel_data);
 498              		.loc 1 784 0
 499 000a 9B4B     		ldr	r3, .L43
 500 000c 1B68     		ldr	r3, [r3]
 501 000e BB64     		str	r3, [r7, #72]
 785:../MQXLITE/kernel/task.c ****     _KLOGE2(KLOG_task_destroy, task_id);
 786:../MQXLITE/kernel/task.c **** 
 787:../MQXLITE/kernel/task.c ****     if (task_id != MQX_NULL_TASK_ID) {
 502              		.loc 1 787 0
 503 0010 7B68     		ldr	r3, [r7, #4]
 504 0012 002B     		cmp	r3, #0
 505 0014 10D0     		beq	.L28
 788:../MQXLITE/kernel/task.c ****         processor = PROC_NUMBER_FROM_TASKID(task_id);
 506              		.loc 1 788 0
 507 0016 7B68     		ldr	r3, [r7, #4]
 508 0018 1A0C     		lsr	r2, r3, #16
 509 001a 3B1C     		mov	r3, r7
 510 001c 4633     		add	r3, r3, #70
 511 001e 1A80     		strh	r2, [r3]
 789:../MQXLITE/kernel/task.c ****         if (processor != (_processor_number)kernel_data->INIT.PROCESSOR_NUMBER ) {
 512              		.loc 1 789 0
 513 0020 BA6C     		ldr	r2, [r7, #72]
 514 0022 A823     		mov	r3, #168
 515 0024 5B00     		lsl	r3, r3, #1
 516 0026 D358     		ldr	r3, [r2, r3]
 517 0028 9BB2     		uxth	r3, r3
 518 002a 3A1C     		mov	r2, r7
 519 002c 4632     		add	r2, r2, #70
 520 002e 1288     		ldrh	r2, [r2]
 521 0030 9A42     		cmp	r2, r3
 522 0032 01D0     		beq	.L28
 790:../MQXLITE/kernel/task.c **** #if MQX_IS_MULTI_PROCESSOR
 791:../MQXLITE/kernel/task.c ****             if ( kernel_data->IPC != NULL ) {
 792:../MQXLITE/kernel/task.c ****                 _KLOGX2(KLOG_task_destroy, MQX_OK);
 793:../MQXLITE/kernel/task.c ****                 return( (*kernel_data->IPC)(FALSE, processor,
 794:../MQXLITE/kernel/task.c ****                                 KERNEL_MESSAGES, IPC_TASK_DESTROY, 1, (_mqx_uint)task_id) );
 795:../MQXLITE/kernel/task.c ****             } else {
 796:../MQXLITE/kernel/task.c **** #endif
 797:../MQXLITE/kernel/task.c ****                 _KLOGX2(KLOG_task_destroy, MQX_INVALID_TASK_ID);
 798:../MQXLITE/kernel/task.c ****                 return(MQX_INVALID_TASK_ID);
 523              		.loc 1 798 0
 524 0034 1223     		mov	r3, #18
 525 0036 1AE1     		b	.L29
 526              	.L28:
 799:../MQXLITE/kernel/task.c **** #if MQX_IS_MULTI_PROCESSOR
 800:../MQXLITE/kernel/task.c ****             } /* Endif */
 801:../MQXLITE/kernel/task.c **** #endif
 802:../MQXLITE/kernel/task.c ****         }/* Endif */
 803:../MQXLITE/kernel/task.c ****     }/* Endif */
 804:../MQXLITE/kernel/task.c **** 
 805:../MQXLITE/kernel/task.c ****     victim_ptr = (TD_STRUCT_PTR)_task_get_td(task_id);
 527              		.loc 1 805 0
 528 0038 7B68     		ldr	r3, [r7, #4]
 529 003a 181C     		mov	r0, r3
 530 003c FFF7FEFF 		bl	_task_get_td
 531 0040 031C     		mov	r3, r0
 532 0042 3B64     		str	r3, [r7, #64]
 806:../MQXLITE/kernel/task.c **** 
 807:../MQXLITE/kernel/task.c **** #if MQX_ENABLE_USER_MODE
 808:../MQXLITE/kernel/task.c ****     /* check template for correct user task parameters */
 809:../MQXLITE/kernel/task.c ****     if (user) {
 810:../MQXLITE/kernel/task.c ****         if (!(victim_ptr->FLAGS & MQX_USER_TASK)) {
 811:../MQXLITE/kernel/task.c ****             return MQX_INVALID_TASK_ID;
 812:../MQXLITE/kernel/task.c ****         }
 813:../MQXLITE/kernel/task.c ****     }
 814:../MQXLITE/kernel/task.c **** #endif
 815:../MQXLITE/kernel/task.c **** 
 816:../MQXLITE/kernel/task.c ****     /* Make sure we are not trying to destroy the system task */
 817:../MQXLITE/kernel/task.c **** #if MQX_CHECK_ERRORS
 818:../MQXLITE/kernel/task.c ****     if ((victim_ptr == NULL) || (victim_ptr == SYSTEM_TD_PTR(kernel_data))) {
 533              		.loc 1 818 0
 534 0044 3B6C     		ldr	r3, [r7, #64]
 535 0046 002B     		cmp	r3, #0
 536 0048 05D0     		beq	.L30
 537              		.loc 1 818 0 is_stmt 0 discriminator 1
 538 004a BB6C     		ldr	r3, [r7, #72]
 539 004c 1A1C     		mov	r2, r3
 540 004e 4832     		add	r2, r2, #72
 541 0050 3B6C     		ldr	r3, [r7, #64]
 542 0052 9A42     		cmp	r2, r3
 543 0054 01D1     		bne	.L31
 544              	.L30:
 819:../MQXLITE/kernel/task.c ****         _KLOGX2(KLOG_task_destroy, MQX_INVALID_TASK_ID);
 820:../MQXLITE/kernel/task.c ****         return MQX_INVALID_TASK_ID;
 545              		.loc 1 820 0 is_stmt 1
 546 0056 1223     		mov	r3, #18
 547 0058 09E1     		b	.L29
 548              	.L31:
 821:../MQXLITE/kernel/task.c ****     } /* Endif */
 822:../MQXLITE/kernel/task.c **** #endif
 823:../MQXLITE/kernel/task.c **** 
 824:../MQXLITE/kernel/task.c ****     /* First, serialize task creation/destruction */
 825:../MQXLITE/kernel/task.c ****     _lwsem_wait((LWSEM_STRUCT_PTR)&kernel_data->TASK_CREATE_LWSEM);
 549              		.loc 1 825 0
 550 005a BB6C     		ldr	r3, [r7, #72]
 551 005c F433     		add	r3, r3, #244
 552 005e 181C     		mov	r0, r3
 553 0060 FFF7FEFF 		bl	_lwsem_wait
 826:../MQXLITE/kernel/task.c **** 
 827:../MQXLITE/kernel/task.c ****     _int_disable();
 554              		.loc 1 827 0
 555 0064 FFF7FEFF 		bl	_int_disable
 828:../MQXLITE/kernel/task.c **** 
 829:../MQXLITE/kernel/task.c ****     if (victim_ptr->STATE == DYING) {
 556              		.loc 1 829 0
 557 0068 3B6C     		ldr	r3, [r7, #64]
 558 006a 9B68     		ldr	r3, [r3, #8]
 559 006c 092B     		cmp	r3, #9
 560 006e 08D1     		bne	.L32
 830:../MQXLITE/kernel/task.c ****         /* Task is already being destroyed */
 831:../MQXLITE/kernel/task.c ****         /* SPR P171-0021-01 re-enable interrupts */
 832:../MQXLITE/kernel/task.c ****         _int_enable();
 561              		.loc 1 832 0
 562 0070 FFF7FEFF 		bl	_int_enable
 833:../MQXLITE/kernel/task.c ****         /* END SPR */
 834:../MQXLITE/kernel/task.c ****         _lwsem_post((LWSEM_STRUCT_PTR)&kernel_data->TASK_CREATE_LWSEM);
 563              		.loc 1 834 0
 564 0074 BB6C     		ldr	r3, [r7, #72]
 565 0076 F433     		add	r3, r3, #244
 566 0078 181C     		mov	r0, r3
 567 007a FFF7FEFF 		bl	_lwsem_post
 835:../MQXLITE/kernel/task.c ****         _KLOGX2(KLOG_task_destroy, MQX_OK);
 836:../MQXLITE/kernel/task.c ****         return MQX_OK;
 568              		.loc 1 836 0
 569 007e 0023     		mov	r3, #0
 570 0080 F5E0     		b	.L29
 571              	.L32:
 837:../MQXLITE/kernel/task.c ****     } /* Endif */
 838:../MQXLITE/kernel/task.c **** 
 839:../MQXLITE/kernel/task.c ****     /* remove the victim from any queues it may be in. */
 840:../MQXLITE/kernel/task.c ****     if (victim_ptr->STATE == READY) {
 572              		.loc 1 840 0
 573 0082 3B6C     		ldr	r3, [r7, #64]
 574 0084 9B68     		ldr	r3, [r3, #8]
 575 0086 022B     		cmp	r3, #2
 576 0088 11D1     		bne	.L33
 841:../MQXLITE/kernel/task.c ****         if (victim_ptr != kernel_data->ACTIVE_PTR) {
 577              		.loc 1 841 0
 578 008a BB6C     		ldr	r3, [r7, #72]
 579 008c DA69     		ldr	r2, [r3, #28]
 580 008e 3B6C     		ldr	r3, [r7, #64]
 581 0090 9A42     		cmp	r2, r3
 582 0092 50D0     		beq	.L34
 583              	.LBB5:
 842:../MQXLITE/kernel/task.c ****             /* Remove other task from ready queue */
 843:../MQXLITE/kernel/task.c ****             _QUEUE_UNLINK(victim_ptr);
 584              		.loc 1 843 0
 585 0094 3B6C     		ldr	r3, [r7, #64]
 586 0096 5B68     		ldr	r3, [r3, #4]
 587 0098 FB63     		str	r3, [r7, #60]
 588 009a 3B6C     		ldr	r3, [r7, #64]
 589 009c 1B68     		ldr	r3, [r3]
 590 009e BB63     		str	r3, [r7, #56]
 591 00a0 FB6B     		ldr	r3, [r7, #60]
 592 00a2 BA6B     		ldr	r2, [r7, #56]
 593 00a4 1A60     		str	r2, [r3]
 594 00a6 BB6B     		ldr	r3, [r7, #56]
 595 00a8 FA6B     		ldr	r2, [r7, #60]
 596 00aa 5A60     		str	r2, [r3, #4]
 597 00ac 43E0     		b	.L34
 598              	.L33:
 599              	.LBE5:
 844:../MQXLITE/kernel/task.c ****         } /* Endif */
 845:../MQXLITE/kernel/task.c ****     } else if (victim_ptr->STATE & IS_ON_TIMEOUT_Q) {
 600              		.loc 1 845 0
 601 00ae 3B6C     		ldr	r3, [r7, #64]
 602 00b0 9A68     		ldr	r2, [r3, #8]
 603 00b2 8023     		mov	r3, #128
 604 00b4 5B00     		lsl	r3, r3, #1
 605 00b6 1340     		and	r3, r2
 606 00b8 25D0     		beq	.L35
 846:../MQXLITE/kernel/task.c ****         /* Remove from time queue (uses NEXT, PREV field) */
 847:../MQXLITE/kernel/task.c ****         _TIME_DEQUEUE(victim_ptr, kernel_data);
 607              		.loc 1 847 0
 608 00ba 3B6C     		ldr	r3, [r7, #64]
 609 00bc 9A68     		ldr	r2, [r3, #8]
 610 00be 8023     		mov	r3, #128
 611 00c0 5B00     		lsl	r3, r3, #1
 612 00c2 1340     		and	r3, r2
 613 00c4 37D0     		beq	.L34
 614              	.LBB6:
 615              		.loc 1 847 0 is_stmt 0 discriminator 1
 616 00c6 3B6C     		ldr	r3, [r7, #64]
 617 00c8 5B68     		ldr	r3, [r3, #4]
 618 00ca 7B63     		str	r3, [r7, #52]
 619 00cc 3B6C     		ldr	r3, [r7, #64]
 620 00ce 1B68     		ldr	r3, [r3]
 621 00d0 3B63     		str	r3, [r7, #48]
 622 00d2 7B6B     		ldr	r3, [r7, #52]
 623 00d4 3A6B     		ldr	r2, [r7, #48]
 624 00d6 1A60     		str	r2, [r3]
 625 00d8 3B6B     		ldr	r3, [r7, #48]
 626 00da 7A6B     		ldr	r2, [r7, #52]
 627 00dc 5A60     		str	r2, [r3, #4]
 628              	.LBE6:
 629 00de BB6C     		ldr	r3, [r7, #72]
 630 00e0 2933     		add	r3, r3, #41
 631 00e2 FF33     		add	r3, r3, #255
 632 00e4 1A89     		ldrh	r2, [r3, #8]
 633 00e6 013A     		sub	r2, r2, #1
 634 00e8 92B2     		uxth	r2, r2
 635 00ea 1A81     		strh	r2, [r3, #8]
 636 00ec 3B6C     		ldr	r3, [r7, #64]
 637 00ee 9A68     		ldr	r2, [r3, #8]
 638 00f0 624B     		ldr	r3, .L43+4
 639 00f2 1A40     		and	r2, r3
 640 00f4 3B6C     		ldr	r3, [r7, #64]
 641 00f6 9A60     		str	r2, [r3, #8]
 642 00f8 3B6C     		ldr	r3, [r7, #64]
 643 00fa 9B68     		ldr	r3, [r3, #8]
 644 00fc 0322     		mov	r2, #3
 645 00fe 1A43     		orr	r2, r3
 646 0100 3B6C     		ldr	r3, [r7, #64]
 647 0102 9A60     		str	r2, [r3, #8]
 648 0104 17E0     		b	.L34
 649              	.L35:
 848:../MQXLITE/kernel/task.c ****     } else if (victim_ptr->STATE & TD_IS_ON_QUEUE) {
 650              		.loc 1 848 0 is_stmt 1
 651 0106 3B6C     		ldr	r3, [r7, #64]
 652 0108 9A68     		ldr	r2, [r3, #8]
 653 010a 8023     		mov	r3, #128
 654 010c 9B00     		lsl	r3, r3, #2
 655 010e 1340     		and	r3, r2
 656 0110 11D0     		beq	.L34
 657              	.LBB7:
 849:../MQXLITE/kernel/task.c ****         /*
 850:../MQXLITE/kernel/task.c ****          * Remove from queue, where suspended
 851:../MQXLITE/kernel/task.c ****          * eg, MUTEX_BLOCKED, IO_BLOCKED, TASKQ_BLOCKED
 852:../MQXLITE/kernel/task.c ****          * (uses NEXT, PREV field)
 853:../MQXLITE/kernel/task.c ****          */
 854:../MQXLITE/kernel/task.c ****         _QUEUE_REMOVE(victim_ptr->INFO, victim_ptr);
 658              		.loc 1 854 0
 659 0112 3B6C     		ldr	r3, [r7, #64]
 660 0114 5B68     		ldr	r3, [r3, #4]
 661 0116 FB62     		str	r3, [r7, #44]
 662 0118 3B6C     		ldr	r3, [r7, #64]
 663 011a 1B68     		ldr	r3, [r3]
 664 011c BB62     		str	r3, [r7, #40]
 665 011e FB6A     		ldr	r3, [r7, #44]
 666 0120 BA6A     		ldr	r2, [r7, #40]
 667 0122 1A60     		str	r2, [r3]
 668 0124 BB6A     		ldr	r3, [r7, #40]
 669 0126 FA6A     		ldr	r2, [r7, #44]
 670 0128 5A60     		str	r2, [r3, #4]
 671              	.LBE7:
 672 012a 3B6C     		ldr	r3, [r7, #64]
 673 012c DB6A     		ldr	r3, [r3, #44]
 674 012e 1A89     		ldrh	r2, [r3, #8]
 675 0130 013A     		sub	r2, r2, #1
 676 0132 92B2     		uxth	r2, r2
 677 0134 1A81     		strh	r2, [r3, #8]
 678              	.L34:
 855:../MQXLITE/kernel/task.c ****     } /* Endif */
 856:../MQXLITE/kernel/task.c **** 
 857:../MQXLITE/kernel/task.c ****     if (victim_ptr->STATE & TD_IS_ON_AUX_QUEUE) {
 679              		.loc 1 857 0
 680 0136 3B6C     		ldr	r3, [r7, #64]
 681 0138 9A68     		ldr	r2, [r3, #8]
 682 013a 8023     		mov	r3, #128
 683 013c DB00     		lsl	r3, r3, #3
 684 013e 1340     		and	r3, r2
 685 0140 13D0     		beq	.L36
 686              	.LBB8:
 858:../MQXLITE/kernel/task.c ****         /*
 859:../MQXLITE/kernel/task.c ****          * Remove from queue, where suspended
 860:../MQXLITE/kernel/task.c ****          * eg, LWSEM_BLOCKED
 861:../MQXLITE/kernel/task.c ****          * (uses AUX_QUEUE field)
 862:../MQXLITE/kernel/task.c ****          */
 863:../MQXLITE/kernel/task.c ****         _QUEUE_REMOVE(victim_ptr->INFO, &victim_ptr->AUX_QUEUE);
 687              		.loc 1 863 0
 688 0142 3B6C     		ldr	r3, [r7, #64]
 689 0144 3033     		add	r3, r3, #48
 690 0146 5B68     		ldr	r3, [r3, #4]
 691 0148 7B62     		str	r3, [r7, #36]
 692 014a 3B6C     		ldr	r3, [r7, #64]
 693 014c 3033     		add	r3, r3, #48
 694 014e 1B68     		ldr	r3, [r3]
 695 0150 3B62     		str	r3, [r7, #32]
 696 0152 7B6A     		ldr	r3, [r7, #36]
 697 0154 3A6A     		ldr	r2, [r7, #32]
 698 0156 1A60     		str	r2, [r3]
 699 0158 3B6A     		ldr	r3, [r7, #32]
 700 015a 7A6A     		ldr	r2, [r7, #36]
 701 015c 5A60     		str	r2, [r3, #4]
 702              	.LBE8:
 703 015e 3B6C     		ldr	r3, [r7, #64]
 704 0160 DB6A     		ldr	r3, [r3, #44]
 705 0162 1A89     		ldrh	r2, [r3, #8]
 706 0164 013A     		sub	r2, r2, #1
 707 0166 92B2     		uxth	r2, r2
 708 0168 1A81     		strh	r2, [r3, #8]
 709              	.L36:
 864:../MQXLITE/kernel/task.c ****     } /* Endif */
 865:../MQXLITE/kernel/task.c **** 
 866:../MQXLITE/kernel/task.c ****     victim_ptr->STATE   = DYING;
 710              		.loc 1 866 0
 711 016a 3B6C     		ldr	r3, [r7, #64]
 712 016c 0922     		mov	r2, #9
 713 016e 9A60     		str	r2, [r3, #8]
 867:../MQXLITE/kernel/task.c **** 
 868:../MQXLITE/kernel/task.c **** #if MQXCFG_ENABLE_FP && PSP_HAS_FPU
 869:../MQXLITE/kernel/task.c ****     /* Stop Floating point context monitoring */
 870:../MQXLITE/kernel/task.c ****     if (kernel_data->FP_ACTIVE_PTR == victim_ptr) {
 871:../MQXLITE/kernel/task.c ****         kernel_data->FP_ACTIVE_PTR = NULL;
 872:../MQXLITE/kernel/task.c ****     }/* Endif */
 873:../MQXLITE/kernel/task.c **** #endif
 874:../MQXLITE/kernel/task.c **** 
 875:../MQXLITE/kernel/task.c **** #if MQXCFG_ENABLE_DSP && PSP_HAS_DSP
 876:../MQXLITE/kernel/task.c ****     /* Stop DSP context monitoring */
 877:../MQXLITE/kernel/task.c ****     if (kernel_data->DSP_ACTIVE_PTR == victim_ptr) {
 878:../MQXLITE/kernel/task.c ****         kernel_data->DSP_ACTIVE_PTR = NULL;
 879:../MQXLITE/kernel/task.c ****     }/* Endif */
 880:../MQXLITE/kernel/task.c **** #endif
 881:../MQXLITE/kernel/task.c **** 
 882:../MQXLITE/kernel/task.c ****     _int_enable();
 714              		.loc 1 882 0
 715 0170 FFF7FEFF 		bl	_int_enable
 716              	.LBB9:
 883:../MQXLITE/kernel/task.c **** 
 884:../MQXLITE/kernel/task.c **** #if MQX_COMPONENT_DESTRUCTION
 885:../MQXLITE/kernel/task.c ****     {
 886:../MQXLITE/kernel/task.c ****         _mqx_uint i;
 887:../MQXLITE/kernel/task.c ****         for (i = 0; i < MAX_KERNEL_COMPONENTS; ++i) {
 717              		.loc 1 887 0
 718 0174 0023     		mov	r3, #0
 719 0176 FB64     		str	r3, [r7, #76]
 720 0178 11E0     		b	.L37
 721              	.L39:
 888:../MQXLITE/kernel/task.c ****             if (kernel_data->COMPONENT_CLEANUP[i] != NULL) {
 722              		.loc 1 888 0
 723 017a BB6C     		ldr	r3, [r7, #72]
 724 017c FA6C     		ldr	r2, [r7, #76]
 725 017e 7432     		add	r2, r2, #116
 726 0180 9200     		lsl	r2, r2, #2
 727 0182 D358     		ldr	r3, [r2, r3]
 728 0184 002B     		cmp	r3, #0
 729 0186 07D0     		beq	.L38
 889:../MQXLITE/kernel/task.c ****                 (*kernel_data->COMPONENT_CLEANUP[i])(victim_ptr);
 730              		.loc 1 889 0
 731 0188 BB6C     		ldr	r3, [r7, #72]
 732 018a FA6C     		ldr	r2, [r7, #76]
 733 018c 7432     		add	r2, r2, #116
 734 018e 9200     		lsl	r2, r2, #2
 735 0190 D358     		ldr	r3, [r2, r3]
 736 0192 3A6C     		ldr	r2, [r7, #64]
 737 0194 101C     		mov	r0, r2
 738 0196 9847     		blx	r3
 739              	.L38:
 887:../MQXLITE/kernel/task.c ****         for (i = 0; i < MAX_KERNEL_COMPONENTS; ++i) {
 740              		.loc 1 887 0
 741 0198 FB6C     		ldr	r3, [r7, #76]
 742 019a 0133     		add	r3, r3, #1
 743 019c FB64     		str	r3, [r7, #76]
 744              	.L37:
 887:../MQXLITE/kernel/task.c ****         for (i = 0; i < MAX_KERNEL_COMPONENTS; ++i) {
 745              		.loc 1 887 0 is_stmt 0 discriminator 1
 746 019e FB6C     		ldr	r3, [r7, #76]
 747 01a0 0F2B     		cmp	r3, #15
 748 01a2 EAD9     		bls	.L39
 749              	.LBE9:
 890:../MQXLITE/kernel/task.c ****             } /* Endif */
 891:../MQXLITE/kernel/task.c ****         } /* Endfor */
 892:../MQXLITE/kernel/task.c ****     }
 893:../MQXLITE/kernel/task.c **** #endif
 894:../MQXLITE/kernel/task.c **** 
 895:../MQXLITE/kernel/task.c **** 
 896:../MQXLITE/kernel/task.c ****     /* Save the task number */
 897:../MQXLITE/kernel/task.c ****     task_num = TASK_NUMBER_FROM_TASKID(victim_ptr->TASK_ID);
 750              		.loc 1 897 0 is_stmt 1
 751 01a4 3B6C     		ldr	r3, [r7, #64]
 752 01a6 DA68     		ldr	r2, [r3, #12]
 753 01a8 3B1C     		mov	r3, r7
 754 01aa 1E33     		add	r3, r3, #30
 755 01ac 1A80     		strh	r2, [r3]
 898:../MQXLITE/kernel/task.c **** 
 899:../MQXLITE/kernel/task.c ****     td_ptr = kernel_data->ACTIVE_PTR;
 756              		.loc 1 899 0
 757 01ae BB6C     		ldr	r3, [r7, #72]
 758 01b0 DB69     		ldr	r3, [r3, #28]
 759 01b2 BB61     		str	r3, [r7, #24]
 900:../MQXLITE/kernel/task.c **** 
 901:../MQXLITE/kernel/task.c **** #if !MQX_LITE_VERSION_NUMBER
 902:../MQXLITE/kernel/task.c ****     if ((victim_ptr->FLAGS & TASK_STACK_PREALLOCATED) == 0) {
 903:../MQXLITE/kernel/task.c ****         pointer block_ptr = _mem_get_next_block_internal(victim_ptr, NULL);
 904:../MQXLITE/kernel/task.c ****         while (block_ptr != NULL) {
 905:../MQXLITE/kernel/task.c ****             pointer next_block_ptr = _mem_get_next_block_internal(victim_ptr, block_ptr);
 906:../MQXLITE/kernel/task.c ****             if (td_ptr != victim_ptr) {
 907:../MQXLITE/kernel/task.c ****                 _mem_transfer_internal(block_ptr, SYSTEM_TD_PTR(kernel_data));
 908:../MQXLITE/kernel/task.c ****             } /* Endif */
 909:../MQXLITE/kernel/task.c ****             if (block_ptr != victim_ptr) {
 910:../MQXLITE/kernel/task.c ****                 _mem_free(block_ptr);
 911:../MQXLITE/kernel/task.c ****             } /* Endif */
 912:../MQXLITE/kernel/task.c ****             block_ptr = next_block_ptr;
 913:../MQXLITE/kernel/task.c ****         } /* Endwhile */
 914:../MQXLITE/kernel/task.c ****     } /* Endif */
 915:../MQXLITE/kernel/task.c **** #endif /* MQX_LITE_VERSION_NUMBER */
 916:../MQXLITE/kernel/task.c **** 
 917:../MQXLITE/kernel/task.c ****     victim_ptr->TASK_ID = TASK_ID_DYING;
 760              		.loc 1 917 0
 761 01b4 3B6C     		ldr	r3, [r7, #64]
 762 01b6 8022     		mov	r2, #128
 763 01b8 1206     		lsl	r2, r2, #24
 764 01ba DA60     		str	r2, [r3, #12]
 918:../MQXLITE/kernel/task.c **** 
 919:../MQXLITE/kernel/task.c ****     /* Start SPR P171-0017-01                */
 920:../MQXLITE/kernel/task.c ****     /* Remove td from linked list of all tds */
 921:../MQXLITE/kernel/task.c ****     if (_QUEUE_GET_SIZE(&kernel_data->TD_LIST) == 1) {
 765              		.loc 1 921 0
 766 01bc BB6C     		ldr	r3, [r7, #72]
 767 01be C833     		add	r3, r3, #200
 768 01c0 1B89     		ldrh	r3, [r3, #8]
 769 01c2 012B     		cmp	r3, #1
 770 01c4 08D1     		bne	.L40
 922:../MQXLITE/kernel/task.c ****         /* Destroying the last task */
 923:../MQXLITE/kernel/task.c ****         kernel_data->TASK_NUMBER   = 1;
 771              		.loc 1 923 0
 772 01c6 BA6C     		ldr	r2, [r7, #72]
 773 01c8 D423     		mov	r3, #212
 774 01ca 0121     		mov	r1, #1
 775 01cc D150     		str	r1, [r2, r3]
 924:../MQXLITE/kernel/task.c ****         kernel_data->INSERT_TD_PTR = NULL;
 776              		.loc 1 924 0
 777 01ce BA6C     		ldr	r2, [r7, #72]
 778 01d0 D823     		mov	r3, #216
 779 01d2 0021     		mov	r1, #0
 780 01d4 D150     		str	r1, [r2, r3]
 781 01d6 14E0     		b	.L41
 782              	.L40:
 925:../MQXLITE/kernel/task.c ****     } else if (kernel_data->TASK_NUMBER > task_num) {
 783              		.loc 1 925 0
 784 01d8 BA6C     		ldr	r2, [r7, #72]
 785 01da D423     		mov	r3, #212
 786 01dc D258     		ldr	r2, [r2, r3]
 787 01de 3B1C     		mov	r3, r7
 788 01e0 1E33     		add	r3, r3, #30
 789 01e2 1B88     		ldrh	r3, [r3]
 790 01e4 9A42     		cmp	r2, r3
 791 01e6 0CD9     		bls	.L41
 926:../MQXLITE/kernel/task.c ****         kernel_data->TASK_NUMBER   = task_num;
 792              		.loc 1 926 0
 793 01e8 3B1C     		mov	r3, r7
 794 01ea 1E33     		add	r3, r3, #30
 795 01ec 1988     		ldrh	r1, [r3]
 796 01ee BA6C     		ldr	r2, [r7, #72]
 797 01f0 D423     		mov	r3, #212
 798 01f2 D150     		str	r1, [r2, r3]
 927:../MQXLITE/kernel/task.c ****         kernel_data->INSERT_TD_PTR =
 928:../MQXLITE/kernel/task.c ****                         (TD_STRUCT_PTR)((uchar_ptr)victim_ptr->TD_LIST_INFO.PREV -
 799              		.loc 1 928 0
 800 01f4 3B6C     		ldr	r3, [r7, #64]
 801 01f6 1B6E     		ldr	r3, [r3, #96]
 802 01f8 191C     		mov	r1, r3
 803 01fa 5C39     		sub	r1, r1, #92
 927:../MQXLITE/kernel/task.c ****         kernel_data->INSERT_TD_PTR =
 804              		.loc 1 927 0
 805 01fc BA6C     		ldr	r2, [r7, #72]
 806 01fe D823     		mov	r3, #216
 807 0200 D150     		str	r1, [r2, r3]
 808              	.L41:
 809              	.LBB10:
 929:../MQXLITE/kernel/task.c ****                                         FIELD_OFFSET(TD_STRUCT,TD_LIST_INFO));
 930:../MQXLITE/kernel/task.c ****     } /* Endif */
 931:../MQXLITE/kernel/task.c ****     _QUEUE_REMOVE(&kernel_data->TD_LIST, &victim_ptr->TD_LIST_INFO);
 810              		.loc 1 931 0
 811 0202 3B6C     		ldr	r3, [r7, #64]
 812 0204 5C33     		add	r3, r3, #92
 813 0206 5B68     		ldr	r3, [r3, #4]
 814 0208 7B61     		str	r3, [r7, #20]
 815 020a 3B6C     		ldr	r3, [r7, #64]
 816 020c 5C33     		add	r3, r3, #92
 817 020e 1B68     		ldr	r3, [r3]
 818 0210 3B61     		str	r3, [r7, #16]
 819 0212 7B69     		ldr	r3, [r7, #20]
 820 0214 3A69     		ldr	r2, [r7, #16]
 821 0216 1A60     		str	r2, [r3]
 822 0218 3B69     		ldr	r3, [r7, #16]
 823 021a 7A69     		ldr	r2, [r7, #20]
 824 021c 5A60     		str	r2, [r3, #4]
 825              	.LBE10:
 826 021e BB6C     		ldr	r3, [r7, #72]
 827 0220 C833     		add	r3, r3, #200
 828 0222 1A89     		ldrh	r2, [r3, #8]
 829 0224 013A     		sub	r2, r2, #1
 830 0226 92B2     		uxth	r2, r2
 831 0228 1A81     		strh	r2, [r3, #8]
 932:../MQXLITE/kernel/task.c ****     /* End SPR P171-0017-01                  */
 933:../MQXLITE/kernel/task.c **** 
 934:../MQXLITE/kernel/task.c ****     /* Free up create/destroy for other tasks */
 935:../MQXLITE/kernel/task.c ****     _lwsem_post((LWSEM_STRUCT_PTR)&kernel_data->TASK_CREATE_LWSEM);
 832              		.loc 1 935 0
 833 022a BB6C     		ldr	r3, [r7, #72]
 834 022c F433     		add	r3, r3, #244
 835 022e 181C     		mov	r0, r3
 836 0230 FFF7FEFF 		bl	_lwsem_post
 936:../MQXLITE/kernel/task.c **** 
 937:../MQXLITE/kernel/task.c ****     if (victim_ptr == td_ptr) {
 837              		.loc 1 937 0
 838 0234 3A6C     		ldr	r2, [r7, #64]
 839 0236 BB69     		ldr	r3, [r7, #24]
 840 0238 9A42     		cmp	r2, r3
 841 023a 13D1     		bne	.L42
 938:../MQXLITE/kernel/task.c ****         /* We are destroying the current task */
 939:../MQXLITE/kernel/task.c ****         _int_disable();
 842              		.loc 1 939 0
 843 023c FFF7FEFF 		bl	_int_disable
 844              	.LBB11:
 940:../MQXLITE/kernel/task.c ****         _QUEUE_UNLINK(victim_ptr);  /* Remove myself from the ready queue */
 845              		.loc 1 940 0
 846 0240 3B6C     		ldr	r3, [r7, #64]
 847 0242 5B68     		ldr	r3, [r3, #4]
 848 0244 FB60     		str	r3, [r7, #12]
 849 0246 3B6C     		ldr	r3, [r7, #64]
 850 0248 1B68     		ldr	r3, [r3]
 851 024a BB60     		str	r3, [r7, #8]
 852 024c FB68     		ldr	r3, [r7, #12]
 853 024e BA68     		ldr	r2, [r7, #8]
 854 0250 1A60     		str	r2, [r3]
 855 0252 BB68     		ldr	r3, [r7, #8]
 856 0254 FA68     		ldr	r2, [r7, #12]
 857 0256 5A60     		str	r2, [r3, #4]
 858              	.LBE11:
 941:../MQXLITE/kernel/task.c ****         _psp_destroy_stack_frame(victim_ptr);
 859              		.loc 1 941 0
 860 0258 3B6C     		ldr	r3, [r7, #64]
 861 025a 181C     		mov	r0, r3
 862 025c FFF7FEFF 		bl	_psp_destroy_stack_frame
 942:../MQXLITE/kernel/task.c **** #if !MQX_LITE_VERSION_NUMBER
 943:../MQXLITE/kernel/task.c ****         if ((victim_ptr->FLAGS & TASK_STACK_PREALLOCATED) == 0) {
 944:../MQXLITE/kernel/task.c ****             _mem_transfer_internal(victim_ptr, SYSTEM_TD_PTR(kernel_data));
 945:../MQXLITE/kernel/task.c ****             _mem_free(victim_ptr);   /* Free the td which includes task's stack! */
 946:../MQXLITE/kernel/task.c ****         } /* Endif */
 947:../MQXLITE/kernel/task.c **** #endif /* MQX_LITE_VERSION_NUMBER */
 948:../MQXLITE/kernel/task.c ****         /* Now we must jump to the scheduler */
 949:../MQXLITE/kernel/task.c ****         _sched_run_internal();   /* WILL NEVER RETURN FROM HERE */
 863              		.loc 1 949 0
 864 0260 FFF7FEFF 		bl	_sched_run_internal
 865              	.L42:
 950:../MQXLITE/kernel/task.c ****     }/* Endif */
 951:../MQXLITE/kernel/task.c **** 
 952:../MQXLITE/kernel/task.c ****     _psp_destroy_stack_frame(victim_ptr);
 866              		.loc 1 952 0
 867 0264 3B6C     		ldr	r3, [r7, #64]
 868 0266 181C     		mov	r0, r3
 869 0268 FFF7FEFF 		bl	_psp_destroy_stack_frame
 953:../MQXLITE/kernel/task.c **** 
 954:../MQXLITE/kernel/task.c **** #if !MQX_LITE_VERSION_NUMBER
 955:../MQXLITE/kernel/task.c ****     /* Free the task descriptor. */
 956:../MQXLITE/kernel/task.c ****     if ((victim_ptr->FLAGS & TASK_STACK_PREALLOCATED) == 0) {
 957:../MQXLITE/kernel/task.c ****         _mem_free(victim_ptr);
 958:../MQXLITE/kernel/task.c ****     } /* Endif */
 959:../MQXLITE/kernel/task.c **** #endif /* MQX_LITE_VERSION_NUMBER */
 960:../MQXLITE/kernel/task.c **** 
 961:../MQXLITE/kernel/task.c **** #if MQX_ENABLE_USER_MODE
 962:../MQXLITE/kernel/task.c ****     if (victim_ptr->FLAGS & MQX_USER_TASK) {
 963:../MQXLITE/kernel/task.c ****         _int_disable();
 964:../MQXLITE/kernel/task.c ****         kernel_data->USR_TASK_RUN_COUNT--;
 965:../MQXLITE/kernel/task.c ****         _int_enable();
 966:../MQXLITE/kernel/task.c ****     }
 967:../MQXLITE/kernel/task.c **** #endif /* MQX_ENABLE_USER_MODE */
 968:../MQXLITE/kernel/task.c **** 
 969:../MQXLITE/kernel/task.c ****     _KLOGX2(KLOG_task_destroy, MQX_OK);
 970:../MQXLITE/kernel/task.c ****     return(MQX_OK);
 870              		.loc 1 970 0
 871 026c 0023     		mov	r3, #0
 872              	.L29:
 971:../MQXLITE/kernel/task.c **** 
 972:../MQXLITE/kernel/task.c **** }
 873              		.loc 1 972 0
 874 026e 181C     		mov	r0, r3
 875 0270 BD46     		mov	sp, r7
 876 0272 14B0     		add	sp, sp, #80
 877              		@ sp needed for prologue
 878 0274 80BD     		pop	{r7, pc}
 879              	.L44:
 880 0276 C046     		.align	2
 881              	.L43:
 882 0278 00000000 		.word	_mqx_kernel_data
 883 027c FFFEFFFF 		.word	-257
 884              		.cfi_endproc
 885              	.LFE3:
 887              		.section	.text._task_destroy,"ax",%progbits
 888              		.align	2
 889              		.global	_task_destroy
 890              		.code	16
 891              		.thumb_func
 893              	_task_destroy:
 894              	.LFB4:
 973:../MQXLITE/kernel/task.c **** 
 974:../MQXLITE/kernel/task.c **** /*!
 975:../MQXLITE/kernel/task.c ****  * \brief Destroys the task.
 976:../MQXLITE/kernel/task.c ****  *
 977:../MQXLITE/kernel/task.c ****  * This function does the following for the task being destroyed:
 978:../MQXLITE/kernel/task.c ****  * \n - Frees memory resources that the task allocated with functions from the
 979:../MQXLITE/kernel/task.c ****  * _mem and _partition families.
 980:../MQXLITE/kernel/task.c ****  * \n - Closes all queues that the task owns and frees all the queue elements.
 981:../MQXLITE/kernel/task.c ****  * \n - Frees any other component resources that the task owns.
 982:../MQXLITE/kernel/task.c ****  *
 983:../MQXLITE/kernel/task.c ****  * \param[in] task_id One of the following:
 984:../MQXLITE/kernel/task.c ****  * \n - Task ID of the task to be destroyed.
 985:../MQXLITE/kernel/task.c ****  * \n - MQX_NULL_TASK_ID (Destroy the calling task.)
 986:../MQXLITE/kernel/task.c ****  *
 987:../MQXLITE/kernel/task.c ****  * \return MQX_OK
 988:../MQXLITE/kernel/task.c ****  * \return MQX_INVALID_TASK_ID
 989:../MQXLITE/kernel/task.c ****  *
 990:../MQXLITE/kernel/task.c ****  * \warning If the task being destroyed is remote, blocks the calling task until
 991:../MQXLITE/kernel/task.c ****  * the task is destroyed.
 992:../MQXLITE/kernel/task.c ****  * \warning If the task being destroyed is local, does not block the calling task.
 993:../MQXLITE/kernel/task.c ****  * \warning If the task being destroyed is the active task, blocks it.
 994:../MQXLITE/kernel/task.c ****  *
 995:../MQXLITE/kernel/task.c ****  * \see _task_create
 996:../MQXLITE/kernel/task.c ****  * \see _task_create_blocked
 997:../MQXLITE/kernel/task.c ****  * \see _task_create_at
 998:../MQXLITE/kernel/task.c ****  * \see _task_get_creator
 999:../MQXLITE/kernel/task.c ****  * \see _task_get_id
1000:../MQXLITE/kernel/task.c ****  * \see _task_abort
1001:../MQXLITE/kernel/task.c ****  */
1002:../MQXLITE/kernel/task.c **** _mqx_uint _task_destroy
1003:../MQXLITE/kernel/task.c **** (
1004:../MQXLITE/kernel/task.c ****     _task_id task_id
1005:../MQXLITE/kernel/task.c **** )
1006:../MQXLITE/kernel/task.c **** {
 895              		.loc 1 1006 0
 896              		.cfi_startproc
 897 0000 80B5     		push	{r7, lr}
 898              	.LCFI12:
 899              		.cfi_def_cfa_offset 8
 900              		.cfi_offset 7, -8
 901              		.cfi_offset 14, -4
 902 0002 82B0     		sub	sp, sp, #8
 903              	.LCFI13:
 904              		.cfi_def_cfa_offset 16
 905 0004 00AF     		add	r7, sp, #0
 906              	.LCFI14:
 907              		.cfi_def_cfa_register 7
 908 0006 7860     		str	r0, [r7, #4]
1007:../MQXLITE/kernel/task.c **** #if MQX_ENABLE_USER_MODE && MQX_ENABLE_USER_STDAPI
1008:../MQXLITE/kernel/task.c ****     if (MQX_RUN_IN_USER_MODE)
1009:../MQXLITE/kernel/task.c ****     {
1010:../MQXLITE/kernel/task.c ****         return _usr_task_destroy(task_id);
1011:../MQXLITE/kernel/task.c ****     }
1012:../MQXLITE/kernel/task.c **** #endif
1013:../MQXLITE/kernel/task.c **** 
1014:../MQXLITE/kernel/task.c ****     return _task_destroy_internal(task_id, FALSE);
 909              		.loc 1 1014 0
 910 0008 7B68     		ldr	r3, [r7, #4]
 911 000a 181C     		mov	r0, r3
 912 000c 0021     		mov	r1, #0
 913 000e FFF7FEFF 		bl	_task_destroy_internal
 914 0012 031C     		mov	r3, r0
1015:../MQXLITE/kernel/task.c **** }
 915              		.loc 1 1015 0
 916 0014 181C     		mov	r0, r3
 917 0016 BD46     		mov	sp, r7
 918 0018 02B0     		add	sp, sp, #8
 919              		@ sp needed for prologue
 920 001a 80BD     		pop	{r7, pc}
 921              		.cfi_endproc
 922              	.LFE4:
 924              		.section	.text._task_get_exception_handler,"ax",%progbits
 925              		.align	2
 926              		.global	_task_get_exception_handler
 927              		.code	16
 928              		.thumb_func
 930              	_task_get_exception_handler:
 931              	.LFB5:
1016:../MQXLITE/kernel/task.c **** 
1017:../MQXLITE/kernel/task.c **** 
1018:../MQXLITE/kernel/task.c **** #if MQX_ENABLE_USER_MODE
1019:../MQXLITE/kernel/task.c **** /*!
1020:../MQXLITE/kernel/task.c ****  * \brief Destroys the task.
1021:../MQXLITE/kernel/task.c ****  *
1022:../MQXLITE/kernel/task.c ****  * This function is an equivalent to the _task_destroy() API call but it can be
1023:../MQXLITE/kernel/task.c ****  * executed from within the User task or other code running in the CPU User mode.
1024:../MQXLITE/kernel/task.c ****  * Parameters passed to this function by pointer are required to meet the memory
1025:../MQXLITE/kernel/task.c ****  * protection requirements as described in the parameter list below.
1026:../MQXLITE/kernel/task.c ****  *
1027:../MQXLITE/kernel/task.c ****  * \param[in] task_id One of the following:
1028:../MQXLITE/kernel/task.c ****  * \n - Task ID of the task to be destroyed.
1029:../MQXLITE/kernel/task.c ****  * \n - MQX_NULL_TASK_ID (Destroy the calling task.)
1030:../MQXLITE/kernel/task.c ****  *
1031:../MQXLITE/kernel/task.c ****  * \return MQX_OK
1032:../MQXLITE/kernel/task.c ****  * \return MQX_INVALID_TASK_ID
1033:../MQXLITE/kernel/task.c ****  *
1034:../MQXLITE/kernel/task.c ****  * \warning If the task being destroyed is remote, blocks the calling task until
1035:../MQXLITE/kernel/task.c ****  * the task is destroyed.
1036:../MQXLITE/kernel/task.c ****  * \warning If the task being destroyed is local, does not block the calling task.
1037:../MQXLITE/kernel/task.c ****  * \warning If the task being destroyed is the active task, blocks it.
1038:../MQXLITE/kernel/task.c ****  *
1039:../MQXLITE/kernel/task.c ****  * \see _task_destroy
1040:../MQXLITE/kernel/task.c ****  * \see _usr_task_create
1041:../MQXLITE/kernel/task.c ****  * \see _usr_task_abort
1042:../MQXLITE/kernel/task.c ****  */
1043:../MQXLITE/kernel/task.c **** _mqx_uint _usr_task_destroy
1044:../MQXLITE/kernel/task.c **** (
1045:../MQXLITE/kernel/task.c ****     _task_id task_id
1046:../MQXLITE/kernel/task.c **** )
1047:../MQXLITE/kernel/task.c **** {
1048:../MQXLITE/kernel/task.c ****     MQX_API_CALL_PARAMS params = {(uint_32)task_id, 0, 0, 0, 0};
1049:../MQXLITE/kernel/task.c ****     return _mqx_api_call(MQX_API_TASK_DESTROY, &params);
1050:../MQXLITE/kernel/task.c **** }
1051:../MQXLITE/kernel/task.c **** 
1052:../MQXLITE/kernel/task.c **** #endif /* MQX_ENABLE_USER_MODE */
1053:../MQXLITE/kernel/task.c **** 
1054:../MQXLITE/kernel/task.c **** #if MQXCFG_ENABLE_FP && PSP_HAS_FPU
1055:../MQXLITE/kernel/task.c **** #if !MQX_LITE_VERSION_NUMBER
1056:../MQXLITE/kernel/task.c **** 
1057:../MQXLITE/kernel/task.c **** /*!
1058:../MQXLITE/kernel/task.c ****  * \brief Enables floating-point context switching for the active task.
1059:../MQXLITE/kernel/task.c ****  *
1060:../MQXLITE/kernel/task.c ****  * When MQX performs a context switch (due to _task_enable_fp call), floating-point
1061:../MQXLITE/kernel/task.c ****  * registers are saved and restored. Otherwise ( _task_disable_fp call) floating-point
1062:../MQXLITE/kernel/task.c ****  * registers are not saved and restored.
1063:../MQXLITE/kernel/task.c ****  *
1064:../MQXLITE/kernel/task.c ****  * \warning Changes context information that MQX stores.
1065:../MQXLITE/kernel/task.c ****  *
1066:../MQXLITE/kernel/task.c ****  * \see _task_disable_fp
1067:../MQXLITE/kernel/task.c ****  */
1068:../MQXLITE/kernel/task.c **** boolean _task_enable_fp(void)
1069:../MQXLITE/kernel/task.c **** {
1070:../MQXLITE/kernel/task.c ****     register KERNEL_DATA_STRUCT_PTR kernel_data;
1071:../MQXLITE/kernel/task.c ****     TD_STRUCT_PTR td_ptr;
1072:../MQXLITE/kernel/task.c ****     boolean res = TRUE;
1073:../MQXLITE/kernel/task.c **** 
1074:../MQXLITE/kernel/task.c ****     _GET_KERNEL_DATA(kernel_data);
1075:../MQXLITE/kernel/task.c ****     _KLOGE1(KLOG_task_enable_fp);
1076:../MQXLITE/kernel/task.c **** 
1077:../MQXLITE/kernel/task.c ****     td_ptr = kernel_data->ACTIVE_PTR;
1078:../MQXLITE/kernel/task.c ****     _int_disable();
1079:../MQXLITE/kernel/task.c **** 
1080:../MQXLITE/kernel/task.c ****     if (NULL == td_ptr->FLOAT_CONTEXT_PTR)
1081:../MQXLITE/kernel/task.c ****     {
1082:../MQXLITE/kernel/task.c ****         /* we dont have allocated space for fp context... try allocate it */
1083:../MQXLITE/kernel/task.c ****         _psp_build_float_context(td_ptr);
1084:../MQXLITE/kernel/task.c ****     }
1085:../MQXLITE/kernel/task.c **** 
1086:../MQXLITE/kernel/task.c ****     if (NULL != td_ptr->FLOAT_CONTEXT_PTR)
1087:../MQXLITE/kernel/task.c ****     {
1088:../MQXLITE/kernel/task.c ****         /* we have allocated space for fp context */
1089:../MQXLITE/kernel/task.c ****         td_ptr->FLAGS |= MQX_FLOATING_POINT_TASK;
1090:../MQXLITE/kernel/task.c ****         if (kernel_data->FP_ACTIVE_PTR != NULL)
1091:../MQXLITE/kernel/task.c ****         {
1092:../MQXLITE/kernel/task.c ****             if (kernel_data->FP_ACTIVE_PTR != kernel_data->ACTIVE_PTR)
1093:../MQXLITE/kernel/task.c ****             {
1094:../MQXLITE/kernel/task.c ****                 _psp_save_fp_context_internal();
1095:../MQXLITE/kernel/task.c ****             }
1096:../MQXLITE/kernel/task.c ****         }
1097:../MQXLITE/kernel/task.c ****         kernel_data->FP_ACTIVE_PTR = kernel_data->ACTIVE_PTR;
1098:../MQXLITE/kernel/task.c ****     }
1099:../MQXLITE/kernel/task.c ****     else
1100:../MQXLITE/kernel/task.c ****     {
1101:../MQXLITE/kernel/task.c ****         /* some problem - TD dont have allocated space for fp context */
1102:../MQXLITE/kernel/task.c ****         res = FALSE;
1103:../MQXLITE/kernel/task.c ****     }
1104:../MQXLITE/kernel/task.c **** 
1105:../MQXLITE/kernel/task.c ****     _int_enable();
1106:../MQXLITE/kernel/task.c ****     _KLOGX1(KLOG_task_enable_fp);
1107:../MQXLITE/kernel/task.c **** 
1108:../MQXLITE/kernel/task.c ****     return res;
1109:../MQXLITE/kernel/task.c **** }
1110:../MQXLITE/kernel/task.c **** 
1111:../MQXLITE/kernel/task.c **** /*!
1112:../MQXLITE/kernel/task.c ****  * \brief Disables floating-point context switching for the active task if the
1113:../MQXLITE/kernel/task.c ****  * task is a floating-point task.
1114:../MQXLITE/kernel/task.c ****  *
1115:../MQXLITE/kernel/task.c ****  * When MQX performs a context switch (due to _task_enable_fp call), floating-point
1116:../MQXLITE/kernel/task.c ****  * registers are saved and restored. Otherwise ( _task_disable_fp call) floating-point
1117:../MQXLITE/kernel/task.c ****  * registers are not saved and restored.
1118:../MQXLITE/kernel/task.c ****  *
1119:../MQXLITE/kernel/task.c ****  * \warning Changes context information that MQX stores.
1120:../MQXLITE/kernel/task.c ****  *
1121:../MQXLITE/kernel/task.c ****  * \see _task_enable_fp
1122:../MQXLITE/kernel/task.c ****  */
1123:../MQXLITE/kernel/task.c **** void _task_disable_fp(void)
1124:../MQXLITE/kernel/task.c **** { /* Body */
1125:../MQXLITE/kernel/task.c ****     register KERNEL_DATA_STRUCT_PTR kernel_data;
1126:../MQXLITE/kernel/task.c ****     TD_STRUCT_PTR                   td_ptr;
1127:../MQXLITE/kernel/task.c **** 
1128:../MQXLITE/kernel/task.c ****     _GET_KERNEL_DATA(kernel_data);
1129:../MQXLITE/kernel/task.c ****     _KLOGE1(KLOG_task_disable_fp);
1130:../MQXLITE/kernel/task.c **** 
1131:../MQXLITE/kernel/task.c ****     td_ptr = kernel_data->ACTIVE_PTR;
1132:../MQXLITE/kernel/task.c ****     _int_disable();
1133:../MQXLITE/kernel/task.c ****     if (td_ptr->FLAGS & MQX_FLOATING_POINT_TASK)
1134:../MQXLITE/kernel/task.c ****     {
1135:../MQXLITE/kernel/task.c ****         td_ptr->FLAGS &= ~MQX_FLOATING_POINT_TASK;
1136:../MQXLITE/kernel/task.c ****         kernel_data->FP_ACTIVE_PTR = NULL;
1137:../MQXLITE/kernel/task.c ****     }
1138:../MQXLITE/kernel/task.c **** 
1139:../MQXLITE/kernel/task.c ****     if (NULL != td_ptr->FLOAT_CONTEXT_PTR)
1140:../MQXLITE/kernel/task.c ****     {
1141:../MQXLITE/kernel/task.c ****         /* deallocate fp context area */
1142:../MQXLITE/kernel/task.c ****         _mem_free(td_ptr->FLOAT_CONTEXT_PTR);
1143:../MQXLITE/kernel/task.c ****         td_ptr->FLOAT_CONTEXT_PTR = NULL;
1144:../MQXLITE/kernel/task.c ****     }
1145:../MQXLITE/kernel/task.c **** 
1146:../MQXLITE/kernel/task.c ****     _int_enable();
1147:../MQXLITE/kernel/task.c ****     _KLOGX1(KLOG_task_disable_fp);
1148:../MQXLITE/kernel/task.c **** 
1149:../MQXLITE/kernel/task.c **** } /* Endbody */
1150:../MQXLITE/kernel/task.c **** #endif /* MQX_LITE_VERSION_NUMBER */
1151:../MQXLITE/kernel/task.c **** #endif /* MQXCFG_ENABLE_FP && PSP_HAS_FPU */
1152:../MQXLITE/kernel/task.c **** 
1153:../MQXLITE/kernel/task.c **** #if MQX_HAS_TASK_ENVIRONMENT
1154:../MQXLITE/kernel/task.c **** 
1155:../MQXLITE/kernel/task.c **** /*!
1156:../MQXLITE/kernel/task.c ****  * \brief Sets the address of the application-specific environment data for the task.
1157:../MQXLITE/kernel/task.c ****  *
1158:../MQXLITE/kernel/task.c ****  * \param[in] task_id         Task ID of the task whose environment is to be set.
1159:../MQXLITE/kernel/task.c ****  * \param[in] environment_ptr Pointer to the environment data.
1160:../MQXLITE/kernel/task.c ****  *
1161:../MQXLITE/kernel/task.c ****  * \return Previous environment data (Success.)
1162:../MQXLITE/kernel/task.c ****  * \return NULL (Failure.)
1163:../MQXLITE/kernel/task.c ****  *
1164:../MQXLITE/kernel/task.c ****  * \warning On failure, calls _task_set_error() to set the task error code to
1165:../MQXLITE/kernel/task.c ****  * MQX_INVALID_TASK_ID.
1166:../MQXLITE/kernel/task.c ****  *
1167:../MQXLITE/kernel/task.c ****  * \see _task_get_environment
1168:../MQXLITE/kernel/task.c ****  * \see _task_get_parameter
1169:../MQXLITE/kernel/task.c ****  * \see _task_get_parameter_for
1170:../MQXLITE/kernel/task.c ****  * \see _task_set_parameter
1171:../MQXLITE/kernel/task.c ****  * \see _task_set_parameter_for
1172:../MQXLITE/kernel/task.c ****  * \see _task_set_error
1173:../MQXLITE/kernel/task.c ****  */
1174:../MQXLITE/kernel/task.c **** pointer _task_set_environment
1175:../MQXLITE/kernel/task.c **** (
1176:../MQXLITE/kernel/task.c ****     _task_id    task_id,
1177:../MQXLITE/kernel/task.c ****     pointer     environment_ptr
1178:../MQXLITE/kernel/task.c **** )
1179:../MQXLITE/kernel/task.c **** { /* Body */
1180:../MQXLITE/kernel/task.c ****     _KLOGM(KERNEL_DATA_STRUCT_PTR kernel_data;)
1181:../MQXLITE/kernel/task.c ****     TD_STRUCT_PTR td_ptr;
1182:../MQXLITE/kernel/task.c ****     pointer       old_env_ptr;
1183:../MQXLITE/kernel/task.c **** 
1184:../MQXLITE/kernel/task.c ****     _KLOGM(_GET_KERNEL_DATA(kernel_data);)
1185:../MQXLITE/kernel/task.c ****     _KLOGE3(KLOG_task_set_environment, task_id, environment_ptr);
1186:../MQXLITE/kernel/task.c **** 
1187:../MQXLITE/kernel/task.c ****     td_ptr = (TD_STRUCT_PTR) _task_get_td(task_id);
1188:../MQXLITE/kernel/task.c ****     if (td_ptr == NULL)
1189:../MQXLITE/kernel/task.c ****     {
1190:../MQXLITE/kernel/task.c ****         _task_set_error(MQX_INVALID_TASK_ID);
1191:../MQXLITE/kernel/task.c ****         _KLOGX2(KLOG_task_set_environment, NULL);
1192:../MQXLITE/kernel/task.c ****         return (NULL);
1193:../MQXLITE/kernel/task.c ****     }/* Endif */
1194:../MQXLITE/kernel/task.c **** 
1195:../MQXLITE/kernel/task.c ****     old_env_ptr = td_ptr->ENVIRONMENT_PTR;
1196:../MQXLITE/kernel/task.c ****     td_ptr->ENVIRONMENT_PTR = environment_ptr;
1197:../MQXLITE/kernel/task.c **** 
1198:../MQXLITE/kernel/task.c ****     _KLOGX2(KLOG_task_set_environment, old_env_ptr);
1199:../MQXLITE/kernel/task.c ****     return (old_env_ptr);
1200:../MQXLITE/kernel/task.c **** 
1201:../MQXLITE/kernel/task.c **** } /* Endbody */
1202:../MQXLITE/kernel/task.c **** 
1203:../MQXLITE/kernel/task.c **** /*!
1204:../MQXLITE/kernel/task.c ****  * \brief Gets a pointer to the application-specific environment data for the task.
1205:../MQXLITE/kernel/task.c ****  *
1206:../MQXLITE/kernel/task.c ****  * \param[in] task_id Task ID of the task whose environment is to be obtained.
1207:../MQXLITE/kernel/task.c ****  *
1208:../MQXLITE/kernel/task.c ****  * \return Environment data (Success.)
1209:../MQXLITE/kernel/task.c ****  * \return NULL (Failure.)
1210:../MQXLITE/kernel/task.c ****  *
1211:../MQXLITE/kernel/task.c ****  * \warning On failure, calls _task_set_error() to set the task error code to
1212:../MQXLITE/kernel/task.c ****  * MQX_INVALID_TASK_ID.
1213:../MQXLITE/kernel/task.c ****  *
1214:../MQXLITE/kernel/task.c ****  * \see _task_set_environment
1215:../MQXLITE/kernel/task.c ****  * \see _task_get_parameter
1216:../MQXLITE/kernel/task.c ****  * \see _task_get_parameter_for
1217:../MQXLITE/kernel/task.c ****  * \see _task_set_parameter
1218:../MQXLITE/kernel/task.c ****  * \see _task_set_parameter_for
1219:../MQXLITE/kernel/task.c ****  * \see _task_set_error
1220:../MQXLITE/kernel/task.c ****  */
1221:../MQXLITE/kernel/task.c **** pointer _task_get_environment
1222:../MQXLITE/kernel/task.c **** (
1223:../MQXLITE/kernel/task.c ****     _task_id task_id
1224:../MQXLITE/kernel/task.c **** )
1225:../MQXLITE/kernel/task.c **** { /* Body */
1226:../MQXLITE/kernel/task.c ****     TD_STRUCT_PTR td_ptr;
1227:../MQXLITE/kernel/task.c **** 
1228:../MQXLITE/kernel/task.c ****     td_ptr = (TD_STRUCT_PTR) _task_get_td(task_id);
1229:../MQXLITE/kernel/task.c ****     if (td_ptr == NULL)
1230:../MQXLITE/kernel/task.c ****     {
1231:../MQXLITE/kernel/task.c ****         _task_set_error(MQX_INVALID_TASK_ID);
1232:../MQXLITE/kernel/task.c ****         return (NULL);
1233:../MQXLITE/kernel/task.c ****     }/* Endif */
1234:../MQXLITE/kernel/task.c **** 
1235:../MQXLITE/kernel/task.c ****     return (td_ptr->ENVIRONMENT_PTR);
1236:../MQXLITE/kernel/task.c **** 
1237:../MQXLITE/kernel/task.c **** } /* Endbody */
1238:../MQXLITE/kernel/task.c **** 
1239:../MQXLITE/kernel/task.c **** #endif /* MQX_HAS_TASK_ENVIRONMENT */
1240:../MQXLITE/kernel/task.c **** 
1241:../MQXLITE/kernel/task.c **** #if MQX_HAS_EXCEPTION_HANDLER
1242:../MQXLITE/kernel/task.c **** 
1243:../MQXLITE/kernel/task.c **** /*!
1244:../MQXLITE/kernel/task.c ****  * \brief Gets a pointer to the task exception handler.
1245:../MQXLITE/kernel/task.c ****  *
1246:../MQXLITE/kernel/task.c ****  * \param[in] task_id Task ID of the task whose exception handler is to be obtained.
1247:../MQXLITE/kernel/task.c ****  *
1248:../MQXLITE/kernel/task.c ****  * \return Pointer to the task exception handler for the task (might be NULL).
1249:../MQXLITE/kernel/task.c ****  * \return NULL (Task ID is not valid.)
1250:../MQXLITE/kernel/task.c ****  *
1251:../MQXLITE/kernel/task.c ****  * \warning On failure, calls _task_set_error() to set the task error code to
1252:../MQXLITE/kernel/task.c ****  * MQX_INVALID_TASK_ID.
1253:../MQXLITE/kernel/task.c ****  *
1254:../MQXLITE/kernel/task.c ****  * \see _task_set_exception_handler
1255:../MQXLITE/kernel/task.c ****  * \see _task_get_exit_handler
1256:../MQXLITE/kernel/task.c ****  * \see _task_set_exit_handler
1257:../MQXLITE/kernel/task.c ****  * \see _int_exception_isr
1258:../MQXLITE/kernel/task.c ****  * \see _task_set_error
1259:../MQXLITE/kernel/task.c ****  */
1260:../MQXLITE/kernel/task.c **** TASK_EXCEPTION_FPTR _task_get_exception_handler
1261:../MQXLITE/kernel/task.c **** (
1262:../MQXLITE/kernel/task.c ****     _task_id        task_id
1263:../MQXLITE/kernel/task.c **** )
1264:../MQXLITE/kernel/task.c **** { /* Body */
 932              		.loc 1 1264 0
 933              		.cfi_startproc
 934 0000 80B5     		push	{r7, lr}
 935              	.LCFI15:
 936              		.cfi_def_cfa_offset 8
 937              		.cfi_offset 7, -8
 938              		.cfi_offset 14, -4
 939 0002 84B0     		sub	sp, sp, #16
 940              	.LCFI16:
 941              		.cfi_def_cfa_offset 24
 942 0004 00AF     		add	r7, sp, #0
 943              	.LCFI17:
 944              		.cfi_def_cfa_register 7
 945 0006 7860     		str	r0, [r7, #4]
1265:../MQXLITE/kernel/task.c ****     TD_STRUCT_PTR       td_ptr;
1266:../MQXLITE/kernel/task.c ****     TASK_EXCEPTION_FPTR excpt_function;
1267:../MQXLITE/kernel/task.c **** 
1268:../MQXLITE/kernel/task.c ****     td_ptr = (TD_STRUCT_PTR)_task_get_td(task_id);
 946              		.loc 1 1268 0
 947 0008 7B68     		ldr	r3, [r7, #4]
 948 000a 181C     		mov	r0, r3
 949 000c FFF7FEFF 		bl	_task_get_td
 950 0010 031C     		mov	r3, r0
 951 0012 FB60     		str	r3, [r7, #12]
1269:../MQXLITE/kernel/task.c ****     if ( td_ptr == NULL )
 952              		.loc 1 1269 0
 953 0014 FB68     		ldr	r3, [r7, #12]
 954 0016 002B     		cmp	r3, #0
 955 0018 04D1     		bne	.L47
1270:../MQXLITE/kernel/task.c ****     {
1271:../MQXLITE/kernel/task.c ****         _task_set_error(MQX_INVALID_TASK_ID);
 956              		.loc 1 1271 0
 957 001a 1220     		mov	r0, #18
 958 001c FFF7FEFF 		bl	_task_set_error
1272:../MQXLITE/kernel/task.c ****         return( NULL );
 959              		.loc 1 1272 0
 960 0020 0023     		mov	r3, #0
 961 0022 03E0     		b	.L48
 962              	.L47:
1273:../MQXLITE/kernel/task.c ****     }/* Endif */
1274:../MQXLITE/kernel/task.c **** 
1275:../MQXLITE/kernel/task.c ****     excpt_function   = td_ptr->EXCEPTION_HANDLER_PTR;
 963              		.loc 1 1275 0
 964 0024 FB68     		ldr	r3, [r7, #12]
 965 0026 9B6E     		ldr	r3, [r3, #104]
 966 0028 BB60     		str	r3, [r7, #8]
1276:../MQXLITE/kernel/task.c **** 
1277:../MQXLITE/kernel/task.c ****     return(excpt_function);
 967              		.loc 1 1277 0
 968 002a BB68     		ldr	r3, [r7, #8]
 969              	.L48:
1278:../MQXLITE/kernel/task.c **** 
1279:../MQXLITE/kernel/task.c **** } /* Endbody */
 970              		.loc 1 1279 0
 971 002c 181C     		mov	r0, r3
 972 002e BD46     		mov	sp, r7
 973 0030 04B0     		add	sp, sp, #16
 974              		@ sp needed for prologue
 975 0032 80BD     		pop	{r7, pc}
 976              		.cfi_endproc
 977              	.LFE5:
 979              		.section	.text._task_set_exception_handler,"ax",%progbits
 980              		.align	2
 981              		.global	_task_set_exception_handler
 982              		.code	16
 983              		.thumb_func
 985              	_task_set_exception_handler:
 986              	.LFB6:
1280:../MQXLITE/kernel/task.c **** 
1281:../MQXLITE/kernel/task.c **** /*!
1282:../MQXLITE/kernel/task.c ****  * \brief Sets the address of the task exception handler.
1283:../MQXLITE/kernel/task.c ****  *
1284:../MQXLITE/kernel/task.c ****  * \param[in] task_id         Task ID of the task whose exception handler is to be set.
1285:../MQXLITE/kernel/task.c ****  * \param[in] handler_address Pointer to the task exception handler.
1286:../MQXLITE/kernel/task.c ****  *
1287:../MQXLITE/kernel/task.c ****  * \return Pointer to the previous task exception handler (might be NULL).
1288:../MQXLITE/kernel/task.c ****  * \return NULL (Task ID is not valid.)
1289:../MQXLITE/kernel/task.c ****  *
1290:../MQXLITE/kernel/task.c ****  * \warning On failure, calls _task_set_error() to set the task error code to
1291:../MQXLITE/kernel/task.c ****  * MQX_INVALID_TASK_ID.
1292:../MQXLITE/kernel/task.c ****  *
1293:../MQXLITE/kernel/task.c ****  * \see _task_get_exception_handler
1294:../MQXLITE/kernel/task.c ****  * \see _task_get_exit_handler
1295:../MQXLITE/kernel/task.c ****  * \see _task_set_exit_handler
1296:../MQXLITE/kernel/task.c ****  * \see _int_exception_isr
1297:../MQXLITE/kernel/task.c ****  * \see _task_set_error
1298:../MQXLITE/kernel/task.c ****  */
1299:../MQXLITE/kernel/task.c **** TASK_EXCEPTION_FPTR _task_set_exception_handler
1300:../MQXLITE/kernel/task.c **** (
1301:../MQXLITE/kernel/task.c ****     _task_id            task_id,
1302:../MQXLITE/kernel/task.c ****     TASK_EXCEPTION_FPTR handler_address
1303:../MQXLITE/kernel/task.c **** )
1304:../MQXLITE/kernel/task.c **** { /* Body */
 987              		.loc 1 1304 0
 988              		.cfi_startproc
 989 0000 80B5     		push	{r7, lr}
 990              	.LCFI18:
 991              		.cfi_def_cfa_offset 8
 992              		.cfi_offset 7, -8
 993              		.cfi_offset 14, -4
 994 0002 84B0     		sub	sp, sp, #16
 995              	.LCFI19:
 996              		.cfi_def_cfa_offset 24
 997 0004 00AF     		add	r7, sp, #0
 998              	.LCFI20:
 999              		.cfi_def_cfa_register 7
 1000 0006 7860     		str	r0, [r7, #4]
 1001 0008 3960     		str	r1, [r7]
1305:../MQXLITE/kernel/task.c ****     _KLOGM(KERNEL_DATA_STRUCT_PTR kernel_data;)
1306:../MQXLITE/kernel/task.c ****     TD_STRUCT_PTR       td_ptr;
1307:../MQXLITE/kernel/task.c ****     TASK_EXCEPTION_FPTR old_function;
1308:../MQXLITE/kernel/task.c **** 
1309:../MQXLITE/kernel/task.c ****     _KLOGM(_GET_KERNEL_DATA(kernel_data);)
1310:../MQXLITE/kernel/task.c ****     _KLOGE3(KLOG_task_set_exception_handler, task_id, handler_address);
1311:../MQXLITE/kernel/task.c **** 
1312:../MQXLITE/kernel/task.c ****     td_ptr = (TD_STRUCT_PTR)_task_get_td(task_id);
 1002              		.loc 1 1312 0
 1003 000a 7B68     		ldr	r3, [r7, #4]
 1004 000c 181C     		mov	r0, r3
 1005 000e FFF7FEFF 		bl	_task_get_td
 1006 0012 031C     		mov	r3, r0
 1007 0014 FB60     		str	r3, [r7, #12]
1313:../MQXLITE/kernel/task.c ****     if ( td_ptr == NULL )
 1008              		.loc 1 1313 0
 1009 0016 FB68     		ldr	r3, [r7, #12]
 1010 0018 002B     		cmp	r3, #0
 1011 001a 04D1     		bne	.L50
1314:../MQXLITE/kernel/task.c ****     {
1315:../MQXLITE/kernel/task.c ****         _task_set_error(MQX_INVALID_TASK_ID);
 1012              		.loc 1 1315 0
 1013 001c 1220     		mov	r0, #18
 1014 001e FFF7FEFF 		bl	_task_set_error
1316:../MQXLITE/kernel/task.c ****         _KLOGX2(KLOG_task_set_exception_handler, NULL);
1317:../MQXLITE/kernel/task.c ****         return( NULL );
 1015              		.loc 1 1317 0
 1016 0022 0023     		mov	r3, #0
 1017 0024 06E0     		b	.L51
 1018              	.L50:
1318:../MQXLITE/kernel/task.c ****     } /* Endif */
1319:../MQXLITE/kernel/task.c **** 
1320:../MQXLITE/kernel/task.c ****     old_function = td_ptr->EXCEPTION_HANDLER_PTR;
 1019              		.loc 1 1320 0
 1020 0026 FB68     		ldr	r3, [r7, #12]
 1021 0028 9B6E     		ldr	r3, [r3, #104]
 1022 002a BB60     		str	r3, [r7, #8]
1321:../MQXLITE/kernel/task.c ****     td_ptr->EXCEPTION_HANDLER_PTR = handler_address;
 1023              		.loc 1 1321 0
 1024 002c FB68     		ldr	r3, [r7, #12]
 1025 002e 3A68     		ldr	r2, [r7]
 1026 0030 9A66     		str	r2, [r3, #104]
1322:../MQXLITE/kernel/task.c **** 
1323:../MQXLITE/kernel/task.c ****     _KLOGX2(KLOG_task_set_exception_handler, old_function);
1324:../MQXLITE/kernel/task.c ****     return(old_function);
 1027              		.loc 1 1324 0
 1028 0032 BB68     		ldr	r3, [r7, #8]
 1029              	.L51:
1325:../MQXLITE/kernel/task.c **** 
1326:../MQXLITE/kernel/task.c **** } /* Endbody */
 1030              		.loc 1 1326 0
 1031 0034 181C     		mov	r0, r3
 1032 0036 BD46     		mov	sp, r7
 1033 0038 04B0     		add	sp, sp, #16
 1034              		@ sp needed for prologue
 1035 003a 80BD     		pop	{r7, pc}
 1036              		.cfi_endproc
 1037              	.LFE6:
 1039              		.section	.text._task_get_exit_handler,"ax",%progbits
 1040              		.align	2
 1041              		.global	_task_get_exit_handler
 1042              		.code	16
 1043              		.thumb_func
 1045              	_task_get_exit_handler:
 1046              	.LFB7:
1327:../MQXLITE/kernel/task.c **** 
1328:../MQXLITE/kernel/task.c **** #endif /* MQX_HAS_EXCEPTION_HANDLER */
1329:../MQXLITE/kernel/task.c **** 
1330:../MQXLITE/kernel/task.c **** #if MQX_HAS_EXIT_HANDLER
1331:../MQXLITE/kernel/task.c **** /*!
1332:../MQXLITE/kernel/task.c ****  * \brief Gets a pointer to the task exit handler for the task.
1333:../MQXLITE/kernel/task.c ****  *
1334:../MQXLITE/kernel/task.c ****  * MQX calls a task's task exit handler if either of these conditions is true:
1335:../MQXLITE/kernel/task.c ****  * \n - Task is terminated with _task_abort().
1336:../MQXLITE/kernel/task.c ****  * \n - Task returns from its function body (for example, if it calls _mqx_exit()).
1337:../MQXLITE/kernel/task.c ****  *
1338:../MQXLITE/kernel/task.c ****  * \param[in] task_id Task ID of the task whose exit handler is to be obtained.
1339:../MQXLITE/kernel/task.c ****  *
1340:../MQXLITE/kernel/task.c ****  * \return Pointer to the exit handler (might be NULL).
1341:../MQXLITE/kernel/task.c ****  * \return NULL (Task_id is not valid.)
1342:../MQXLITE/kernel/task.c ****  *
1343:../MQXLITE/kernel/task.c ****  * \warning On failure, calls _task_set_error() to set the task error code to
1344:../MQXLITE/kernel/task.c ****  * MQX_INVALID_TASK_ID.
1345:../MQXLITE/kernel/task.c ****  *
1346:../MQXLITE/kernel/task.c ****  * \see _task_set_exit_handler
1347:../MQXLITE/kernel/task.c ****  * \see _mqx_exit
1348:../MQXLITE/kernel/task.c ****  * \see _task_get_exception_handler
1349:../MQXLITE/kernel/task.c ****  * \see _task_set_exception_handler
1350:../MQXLITE/kernel/task.c ****  * \see _task_abort
1351:../MQXLITE/kernel/task.c ****  * \see _task_set_error
1352:../MQXLITE/kernel/task.c ****  */
1353:../MQXLITE/kernel/task.c **** TASK_EXIT_FPTR _task_get_exit_handler
1354:../MQXLITE/kernel/task.c **** (
1355:../MQXLITE/kernel/task.c ****     _task_id        task_id
1356:../MQXLITE/kernel/task.c **** )
1357:../MQXLITE/kernel/task.c **** { /* Body */
 1047              		.loc 1 1357 0
 1048              		.cfi_startproc
 1049 0000 80B5     		push	{r7, lr}
 1050              	.LCFI21:
 1051              		.cfi_def_cfa_offset 8
 1052              		.cfi_offset 7, -8
 1053              		.cfi_offset 14, -4
 1054 0002 84B0     		sub	sp, sp, #16
 1055              	.LCFI22:
 1056              		.cfi_def_cfa_offset 24
 1057 0004 00AF     		add	r7, sp, #0
 1058              	.LCFI23:
 1059              		.cfi_def_cfa_register 7
 1060 0006 7860     		str	r0, [r7, #4]
1358:../MQXLITE/kernel/task.c ****     TD_STRUCT_PTR  td_ptr;
1359:../MQXLITE/kernel/task.c ****     TASK_EXIT_FPTR exit_function;
1360:../MQXLITE/kernel/task.c **** 
1361:../MQXLITE/kernel/task.c ****     td_ptr = (TD_STRUCT_PTR)_task_get_td(task_id);
 1061              		.loc 1 1361 0
 1062 0008 7B68     		ldr	r3, [r7, #4]
 1063 000a 181C     		mov	r0, r3
 1064 000c FFF7FEFF 		bl	_task_get_td
 1065 0010 031C     		mov	r3, r0
 1066 0012 FB60     		str	r3, [r7, #12]
1362:../MQXLITE/kernel/task.c ****     if ( td_ptr == NULL )
 1067              		.loc 1 1362 0
 1068 0014 FB68     		ldr	r3, [r7, #12]
 1069 0016 002B     		cmp	r3, #0
 1070 0018 04D1     		bne	.L53
1363:../MQXLITE/kernel/task.c ****     {
1364:../MQXLITE/kernel/task.c ****         _task_set_error(MQX_INVALID_TASK_ID);
 1071              		.loc 1 1364 0
 1072 001a 1220     		mov	r0, #18
 1073 001c FFF7FEFF 		bl	_task_set_error
1365:../MQXLITE/kernel/task.c ****         return( NULL );
 1074              		.loc 1 1365 0
 1075 0020 0023     		mov	r3, #0
 1076 0022 03E0     		b	.L54
 1077              	.L53:
1366:../MQXLITE/kernel/task.c ****     }/* Endif */
1367:../MQXLITE/kernel/task.c **** 
1368:../MQXLITE/kernel/task.c ****     exit_function = td_ptr->EXIT_HANDLER_PTR;
 1078              		.loc 1 1368 0
 1079 0024 FB68     		ldr	r3, [r7, #12]
 1080 0026 5B6E     		ldr	r3, [r3, #100]
 1081 0028 BB60     		str	r3, [r7, #8]
1369:../MQXLITE/kernel/task.c **** 
1370:../MQXLITE/kernel/task.c ****     return(exit_function);
 1082              		.loc 1 1370 0
 1083 002a BB68     		ldr	r3, [r7, #8]
 1084              	.L54:
1371:../MQXLITE/kernel/task.c **** } /* Endbody */
 1085              		.loc 1 1371 0
 1086 002c 181C     		mov	r0, r3
 1087 002e BD46     		mov	sp, r7
 1088 0030 04B0     		add	sp, sp, #16
 1089              		@ sp needed for prologue
 1090 0032 80BD     		pop	{r7, pc}
 1091              		.cfi_endproc
 1092              	.LFE7:
 1094              		.section	.text._task_set_exit_handler,"ax",%progbits
 1095              		.align	2
 1096              		.global	_task_set_exit_handler
 1097              		.code	16
 1098              		.thumb_func
 1100              	_task_set_exit_handler:
 1101              	.LFB8:
1372:../MQXLITE/kernel/task.c **** 
1373:../MQXLITE/kernel/task.c **** /*!
1374:../MQXLITE/kernel/task.c ****  * \brief Sets the address of the task exit handler for the task.
1375:../MQXLITE/kernel/task.c ****  *
1376:../MQXLITE/kernel/task.c ****  * MQX calls a task's task exit handler if either of these conditions is true:
1377:../MQXLITE/kernel/task.c ****  * \n - Task is terminated with _task_abort().
1378:../MQXLITE/kernel/task.c ****  * \n - Task returns from its function body (for example, if it calls _mqx_exit()).
1379:../MQXLITE/kernel/task.c ****  *
1380:../MQXLITE/kernel/task.c ****  * \param[in] task_id              Task ID of the task whose exit handler is to be set.
1381:../MQXLITE/kernel/task.c ****  * \param[in] exit_handler_address Pointer to the exit handler for the task.
1382:../MQXLITE/kernel/task.c ****  *
1383:../MQXLITE/kernel/task.c ****  * \return Pointer to the previous exit handler (might be NULL).
1384:../MQXLITE/kernel/task.c ****  * \return NULL (Task_id is not valid.)
1385:../MQXLITE/kernel/task.c ****  *
1386:../MQXLITE/kernel/task.c ****  * \warning On failure, calls _task_set_error() to set the task error code to
1387:../MQXLITE/kernel/task.c ****  * MQX_INVALID_TASK_ID.
1388:../MQXLITE/kernel/task.c ****  *
1389:../MQXLITE/kernel/task.c ****  * \see _task_get_exit_handler
1390:../MQXLITE/kernel/task.c ****  * \see _mqx_exit
1391:../MQXLITE/kernel/task.c ****  * \see _task_get_exception_handler
1392:../MQXLITE/kernel/task.c ****  * \see _task_set_exception_handler
1393:../MQXLITE/kernel/task.c ****  * \see _task_abort
1394:../MQXLITE/kernel/task.c ****  * \see _task_set_error
1395:../MQXLITE/kernel/task.c ****  */
1396:../MQXLITE/kernel/task.c **** TASK_EXIT_FPTR _task_set_exit_handler
1397:../MQXLITE/kernel/task.c **** (
1398:../MQXLITE/kernel/task.c ****     _task_id       task_id,
1399:../MQXLITE/kernel/task.c ****     TASK_EXIT_FPTR exit_handler_address
1400:../MQXLITE/kernel/task.c **** )
1401:../MQXLITE/kernel/task.c **** { /* Body */
 1102              		.loc 1 1401 0
 1103              		.cfi_startproc
 1104 0000 80B5     		push	{r7, lr}
 1105              	.LCFI24:
 1106              		.cfi_def_cfa_offset 8
 1107              		.cfi_offset 7, -8
 1108              		.cfi_offset 14, -4
 1109 0002 84B0     		sub	sp, sp, #16
 1110              	.LCFI25:
 1111              		.cfi_def_cfa_offset 24
 1112 0004 00AF     		add	r7, sp, #0
 1113              	.LCFI26:
 1114              		.cfi_def_cfa_register 7
 1115 0006 7860     		str	r0, [r7, #4]
 1116 0008 3960     		str	r1, [r7]
1402:../MQXLITE/kernel/task.c ****     _KLOGM(KERNEL_DATA_STRUCT_PTR kernel_data;)
1403:../MQXLITE/kernel/task.c ****     TD_STRUCT_PTR  td_ptr;
1404:../MQXLITE/kernel/task.c ****     TASK_EXIT_FPTR old_function;
1405:../MQXLITE/kernel/task.c **** 
1406:../MQXLITE/kernel/task.c ****     _KLOGM(_GET_KERNEL_DATA(kernel_data);)
1407:../MQXLITE/kernel/task.c ****     _KLOGE3(KLOG_task_set_exit_handler, task_id, exit_handler_address);
1408:../MQXLITE/kernel/task.c **** 
1409:../MQXLITE/kernel/task.c ****     td_ptr = (TD_STRUCT_PTR)_task_get_td(task_id);
 1117              		.loc 1 1409 0
 1118 000a 7B68     		ldr	r3, [r7, #4]
 1119 000c 181C     		mov	r0, r3
 1120 000e FFF7FEFF 		bl	_task_get_td
 1121 0012 031C     		mov	r3, r0
 1122 0014 FB60     		str	r3, [r7, #12]
1410:../MQXLITE/kernel/task.c ****     if ( td_ptr == NULL )
 1123              		.loc 1 1410 0
 1124 0016 FB68     		ldr	r3, [r7, #12]
 1125 0018 002B     		cmp	r3, #0
 1126 001a 04D1     		bne	.L56
1411:../MQXLITE/kernel/task.c ****     {
1412:../MQXLITE/kernel/task.c ****         _task_set_error(MQX_INVALID_TASK_ID);
 1127              		.loc 1 1412 0
 1128 001c 1220     		mov	r0, #18
 1129 001e FFF7FEFF 		bl	_task_set_error
1413:../MQXLITE/kernel/task.c ****         _KLOGX2(KLOG_task_set_exit_handler, NULL);
1414:../MQXLITE/kernel/task.c ****         return( NULL );
 1130              		.loc 1 1414 0
 1131 0022 0023     		mov	r3, #0
 1132 0024 06E0     		b	.L57
 1133              	.L56:
1415:../MQXLITE/kernel/task.c ****     }/* Endif */
1416:../MQXLITE/kernel/task.c **** 
1417:../MQXLITE/kernel/task.c ****     old_function = td_ptr->EXIT_HANDLER_PTR;
 1134              		.loc 1 1417 0
 1135 0026 FB68     		ldr	r3, [r7, #12]
 1136 0028 5B6E     		ldr	r3, [r3, #100]
 1137 002a BB60     		str	r3, [r7, #8]
1418:../MQXLITE/kernel/task.c ****     td_ptr->EXIT_HANDLER_PTR = exit_handler_address;
 1138              		.loc 1 1418 0
 1139 002c FB68     		ldr	r3, [r7, #12]
 1140 002e 3A68     		ldr	r2, [r7]
 1141 0030 5A66     		str	r2, [r3, #100]
1419:../MQXLITE/kernel/task.c **** 
1420:../MQXLITE/kernel/task.c ****     _KLOGX2(KLOG_task_set_exit_handler, old_function);
1421:../MQXLITE/kernel/task.c ****     return(old_function);
 1142              		.loc 1 1421 0
 1143 0032 BB68     		ldr	r3, [r7, #8]
 1144              	.L57:
1422:../MQXLITE/kernel/task.c **** 
1423:../MQXLITE/kernel/task.c **** } /* Endbody */
 1145              		.loc 1 1423 0
 1146 0034 181C     		mov	r0, r3
 1147 0036 BD46     		mov	sp, r7
 1148 0038 04B0     		add	sp, sp, #16
 1149              		@ sp needed for prologue
 1150 003a 80BD     		pop	{r7, pc}
 1151              		.cfi_endproc
 1152              	.LFE8:
 1154              		.section	.text._task_get_id_from_name,"ax",%progbits
 1155              		.align	2
 1156              		.global	_task_get_id_from_name
 1157              		.code	16
 1158              		.thumb_func
 1160              	_task_get_id_from_name:
 1161              	.LFB9:
1424:../MQXLITE/kernel/task.c **** 
1425:../MQXLITE/kernel/task.c **** #endif /* MQX_HAS_EXIT_HANDLER */
1426:../MQXLITE/kernel/task.c **** 
1427:../MQXLITE/kernel/task.c **** #if MQX_TD_HAS_TASK_TEMPLATE_PTR
1428:../MQXLITE/kernel/task.c **** /*!
1429:../MQXLITE/kernel/task.c ****  * \brief Gets the task ID that is associated with the task name.
1430:../MQXLITE/kernel/task.c ****  *
1431:../MQXLITE/kernel/task.c ****  * This function uses a task name (from its task template) to find a task id. Only
1432:../MQXLITE/kernel/task.c ****  * the first task found with the provided name is found.
1433:../MQXLITE/kernel/task.c ****  *
1434:../MQXLITE/kernel/task.c ****  * \param[in] name_ptr Pointer to the name to find in the task template list.
1435:../MQXLITE/kernel/task.c ****  *
1436:../MQXLITE/kernel/task.c ****  * \return Task ID that is associated with the first match of name_ptr.
1437:../MQXLITE/kernel/task.c ****  * \return MQX_NULL_TASK_ID (Name is not in the task template list.)
1438:../MQXLITE/kernel/task.c ****  *
1439:../MQXLITE/kernel/task.c ****  * \see _task_get_creator
1440:../MQXLITE/kernel/task.c ****  * \see _task_get_processor
1441:../MQXLITE/kernel/task.c ****  * \see _task_get_id
1442:../MQXLITE/kernel/task.c ****  */
1443:../MQXLITE/kernel/task.c **** _task_id _task_get_id_from_name
1444:../MQXLITE/kernel/task.c **** (
1445:../MQXLITE/kernel/task.c ****     char_ptr name_ptr
1446:../MQXLITE/kernel/task.c **** )
1447:../MQXLITE/kernel/task.c **** { /* Body */
 1162              		.loc 1 1447 0
 1163              		.cfi_startproc
 1164 0000 80B5     		push	{r7, lr}
 1165              	.LCFI27:
 1166              		.cfi_def_cfa_offset 8
 1167              		.cfi_offset 7, -8
 1168              		.cfi_offset 14, -4
 1169 0002 86B0     		sub	sp, sp, #24
 1170              	.LCFI28:
 1171              		.cfi_def_cfa_offset 32
 1172 0004 00AF     		add	r7, sp, #0
 1173              	.LCFI29:
 1174              		.cfi_def_cfa_register 7
 1175 0006 7860     		str	r0, [r7, #4]
1448:../MQXLITE/kernel/task.c ****     KERNEL_DATA_STRUCT_PTR  kernel_data;
1449:../MQXLITE/kernel/task.c ****     TD_STRUCT_PTR           td_ptr;
1450:../MQXLITE/kernel/task.c ****     _mqx_uint               size;
1451:../MQXLITE/kernel/task.c **** 
1452:../MQXLITE/kernel/task.c ****     _GET_KERNEL_DATA(kernel_data);
 1176              		.loc 1 1452 0
 1177 0008 1D4B     		ldr	r3, .L64
 1178 000a 1B68     		ldr	r3, [r3]
 1179 000c FB60     		str	r3, [r7, #12]
1453:../MQXLITE/kernel/task.c **** 
1454:../MQXLITE/kernel/task.c ****     _lwsem_wait((LWSEM_STRUCT_PTR)&kernel_data->TASK_CREATE_LWSEM);
 1180              		.loc 1 1454 0
 1181 000e FB68     		ldr	r3, [r7, #12]
 1182 0010 F433     		add	r3, r3, #244
 1183 0012 181C     		mov	r0, r3
 1184 0014 FFF7FEFF 		bl	_lwsem_wait
1455:../MQXLITE/kernel/task.c **** 
1456:../MQXLITE/kernel/task.c ****     td_ptr = (TD_STRUCT_PTR)((uchar_ptr)kernel_data->TD_LIST.NEXT -
 1185              		.loc 1 1456 0
 1186 0018 FA68     		ldr	r2, [r7, #12]
 1187 001a C823     		mov	r3, #200
 1188 001c D358     		ldr	r3, [r2, r3]
 1189 001e 5C3B     		sub	r3, r3, #92
 1190 0020 7B61     		str	r3, [r7, #20]
1457:../MQXLITE/kernel/task.c ****              FIELD_OFFSET(TD_STRUCT,TD_LIST_INFO));
1458:../MQXLITE/kernel/task.c ****     size   = _QUEUE_GET_SIZE(&kernel_data->TD_LIST);
 1191              		.loc 1 1458 0
 1192 0022 FB68     		ldr	r3, [r7, #12]
 1193 0024 C833     		add	r3, r3, #200
 1194 0026 1B89     		ldrh	r3, [r3, #8]
 1195 0028 3B61     		str	r3, [r7, #16]
1459:../MQXLITE/kernel/task.c **** 
1460:../MQXLITE/kernel/task.c ****     while (size && td_ptr)
 1196              		.loc 1 1460 0
 1197 002a 19E0     		b	.L59
 1198              	.L63:
1461:../MQXLITE/kernel/task.c ****     {
1462:../MQXLITE/kernel/task.c ****         if (strncmp( td_ptr->TASK_TEMPLATE_PTR->TASK_NAME, name_ptr,
 1199              		.loc 1 1462 0
 1200 002c 7B69     		ldr	r3, [r7, #20]
 1201 002e 9B6D     		ldr	r3, [r3, #88]
 1202 0030 1A69     		ldr	r2, [r3, #16]
 1203 0032 7B68     		ldr	r3, [r7, #4]
 1204 0034 101C     		mov	r0, r2
 1205 0036 191C     		mov	r1, r3
 1206 0038 3222     		mov	r2, #50
 1207 003a FFF7FEFF 		bl	strncmp
 1208 003e 031C     		mov	r3, r0
 1209 0040 07D1     		bne	.L60
1463:../MQXLITE/kernel/task.c ****                         MQX_MAX_TASK_NAME_SIZE) == 0)
1464:../MQXLITE/kernel/task.c ****         {
1465:../MQXLITE/kernel/task.c ****             _lwsem_post((LWSEM_STRUCT_PTR)&kernel_data->TASK_CREATE_LWSEM);
 1210              		.loc 1 1465 0
 1211 0042 FB68     		ldr	r3, [r7, #12]
 1212 0044 F433     		add	r3, r3, #244
 1213 0046 181C     		mov	r0, r3
 1214 0048 FFF7FEFF 		bl	_lwsem_post
1466:../MQXLITE/kernel/task.c ****             return td_ptr->TASK_ID;
 1215              		.loc 1 1466 0
 1216 004c 7B69     		ldr	r3, [r7, #20]
 1217 004e DB68     		ldr	r3, [r3, #12]
 1218 0050 12E0     		b	.L61
 1219              	.L60:
1467:../MQXLITE/kernel/task.c ****         } /* Endif */
1468:../MQXLITE/kernel/task.c ****         size--;
 1220              		.loc 1 1468 0
 1221 0052 3B69     		ldr	r3, [r7, #16]
 1222 0054 013B     		sub	r3, r3, #1
 1223 0056 3B61     		str	r3, [r7, #16]
1469:../MQXLITE/kernel/task.c ****         td_ptr = (TD_STRUCT_PTR)((uchar_ptr)(td_ptr->TD_LIST_INFO.NEXT) -
 1224              		.loc 1 1469 0
 1225 0058 7B69     		ldr	r3, [r7, #20]
 1226 005a DB6D     		ldr	r3, [r3, #92]
 1227 005c 5C3B     		sub	r3, r3, #92
 1228 005e 7B61     		str	r3, [r7, #20]
 1229              	.L59:
1460:../MQXLITE/kernel/task.c ****     while (size && td_ptr)
 1230              		.loc 1 1460 0 discriminator 1
 1231 0060 3B69     		ldr	r3, [r7, #16]
 1232 0062 002B     		cmp	r3, #0
 1233 0064 02D0     		beq	.L62
1460:../MQXLITE/kernel/task.c ****     while (size && td_ptr)
 1234              		.loc 1 1460 0 is_stmt 0 discriminator 2
 1235 0066 7B69     		ldr	r3, [r7, #20]
 1236 0068 002B     		cmp	r3, #0
 1237 006a DFD1     		bne	.L63
 1238              	.L62:
1470:../MQXLITE/kernel/task.c ****                  FIELD_OFFSET(TD_STRUCT,TD_LIST_INFO));
1471:../MQXLITE/kernel/task.c ****     } /* Endwhile */
1472:../MQXLITE/kernel/task.c **** 
1473:../MQXLITE/kernel/task.c ****     _lwsem_post((LWSEM_STRUCT_PTR)&kernel_data->TASK_CREATE_LWSEM);
 1239              		.loc 1 1473 0 is_stmt 1
 1240 006c FB68     		ldr	r3, [r7, #12]
 1241 006e F433     		add	r3, r3, #244
 1242 0070 181C     		mov	r0, r3
 1243 0072 FFF7FEFF 		bl	_lwsem_post
1474:../MQXLITE/kernel/task.c **** 
1475:../MQXLITE/kernel/task.c ****     return MQX_NULL_TASK_ID;
 1244              		.loc 1 1475 0
 1245 0076 0023     		mov	r3, #0
 1246              	.L61:
1476:../MQXLITE/kernel/task.c **** 
1477:../MQXLITE/kernel/task.c **** } /* Endbody */
 1247              		.loc 1 1477 0
 1248 0078 181C     		mov	r0, r3
 1249 007a BD46     		mov	sp, r7
 1250 007c 06B0     		add	sp, sp, #24
 1251              		@ sp needed for prologue
 1252 007e 80BD     		pop	{r7, pc}
 1253              	.L65:
 1254              		.align	2
 1255              	.L64:
 1256 0080 00000000 		.word	_mqx_kernel_data
 1257              		.cfi_endproc
 1258              	.LFE9:
 1260              		.section	.text._task_get_template_ptr,"ax",%progbits
 1261              		.align	2
 1262              		.global	_task_get_template_ptr
 1263              		.code	16
 1264              		.thumb_func
 1266              	_task_get_template_ptr:
 1267              	.LFB10:
1478:../MQXLITE/kernel/task.c **** 
1479:../MQXLITE/kernel/task.c **** /*!
1480:../MQXLITE/kernel/task.c ****  * \brief Gets the pointer to the task template for the task ID.
1481:../MQXLITE/kernel/task.c ****  *
1482:../MQXLITE/kernel/task.c ****  * \param[in] task_id Task ID for the task for which to get pointer.
1483:../MQXLITE/kernel/task.c ****  *
1484:../MQXLITE/kernel/task.c ****  * \return Pointer to the task's task template. NULL if an invalid task_id is
1485:../MQXLITE/kernel/task.c ****  * presented.
1486:../MQXLITE/kernel/task.c ****  *
1487:../MQXLITE/kernel/task.c ****  * \see _task_get_template_index
1488:../MQXLITE/kernel/task.c ****  * \see _task_get_index_from_id
1489:../MQXLITE/kernel/task.c ****  * \see TASK_TEMPLATE_STRUCT
1490:../MQXLITE/kernel/task.c ****  */
1491:../MQXLITE/kernel/task.c **** TASK_TEMPLATE_STRUCT_PTR  _task_get_template_ptr
1492:../MQXLITE/kernel/task.c **** (
1493:../MQXLITE/kernel/task.c ****     _task_id  task_id
1494:../MQXLITE/kernel/task.c **** )
1495:../MQXLITE/kernel/task.c **** { /* Body */
 1268              		.loc 1 1495 0
 1269              		.cfi_startproc
 1270 0000 80B5     		push	{r7, lr}
 1271              	.LCFI30:
 1272              		.cfi_def_cfa_offset 8
 1273              		.cfi_offset 7, -8
 1274              		.cfi_offset 14, -4
 1275 0002 84B0     		sub	sp, sp, #16
 1276              	.LCFI31:
 1277              		.cfi_def_cfa_offset 24
 1278 0004 00AF     		add	r7, sp, #0
 1279              	.LCFI32:
 1280              		.cfi_def_cfa_register 7
 1281 0006 7860     		str	r0, [r7, #4]
1496:../MQXLITE/kernel/task.c ****     TD_STRUCT_PTR  td_ptr;
1497:../MQXLITE/kernel/task.c **** 
1498:../MQXLITE/kernel/task.c ****     td_ptr = _task_get_td(task_id);
 1282              		.loc 1 1498 0
 1283 0008 7B68     		ldr	r3, [r7, #4]
 1284 000a 181C     		mov	r0, r3
 1285 000c FFF7FEFF 		bl	_task_get_td
 1286 0010 031C     		mov	r3, r0
 1287 0012 FB60     		str	r3, [r7, #12]
1499:../MQXLITE/kernel/task.c **** 
1500:../MQXLITE/kernel/task.c ****     return (td_ptr ? td_ptr->TASK_TEMPLATE_PTR : NULL);
 1288              		.loc 1 1500 0
 1289 0014 FB68     		ldr	r3, [r7, #12]
 1290 0016 002B     		cmp	r3, #0
 1291 0018 02D0     		beq	.L67
 1292              		.loc 1 1500 0 is_stmt 0 discriminator 1
 1293 001a FB68     		ldr	r3, [r7, #12]
 1294 001c 9B6D     		ldr	r3, [r3, #88]
 1295 001e 00E0     		b	.L68
 1296              	.L67:
 1297              		.loc 1 1500 0 discriminator 2
 1298 0020 0023     		mov	r3, #0
 1299              	.L68:
1501:../MQXLITE/kernel/task.c **** 
1502:../MQXLITE/kernel/task.c **** } /* Endbody */
 1300              		.loc 1 1502 0 is_stmt 1 discriminator 3
 1301 0022 181C     		mov	r0, r3
 1302 0024 BD46     		mov	sp, r7
 1303 0026 04B0     		add	sp, sp, #16
 1304              		@ sp needed for prologue
 1305 0028 80BD     		pop	{r7, pc}
 1306              		.cfi_endproc
 1307              	.LFE10:
 1309 002a C046     		.section	.text._task_get_template_index,"ax",%progbits
 1310              		.align	2
 1311              		.global	_task_get_template_index
 1312              		.code	16
 1313              		.thumb_func
 1315              	_task_get_template_index:
 1316              	.LFB11:
1503:../MQXLITE/kernel/task.c **** 
1504:../MQXLITE/kernel/task.c **** #endif /* MQX_TD_HAS_TASK_TEMPLATE_PTR */
1505:../MQXLITE/kernel/task.c **** 
1506:../MQXLITE/kernel/task.c **** /*!
1507:../MQXLITE/kernel/task.c ****  * \brief Gets the task template index that is associated with the task name.
1508:../MQXLITE/kernel/task.c ****  *
1509:../MQXLITE/kernel/task.c ****  * \param[in] name_ptr Pointer to the name to find in the task template list.
1510:../MQXLITE/kernel/task.c ****  *
1511:../MQXLITE/kernel/task.c ****  * \return Task template index that is associated with the first match of name_ptr.
1512:../MQXLITE/kernel/task.c ****  * \return MQX_NULL_TASK_ID (Name is not in the task template list.)
1513:../MQXLITE/kernel/task.c ****  *
1514:../MQXLITE/kernel/task.c ****  * \see _task_get_id_from_name
1515:../MQXLITE/kernel/task.c ****  * \see _task_get_index_from_id
1516:../MQXLITE/kernel/task.c ****  */
1517:../MQXLITE/kernel/task.c **** _mqx_uint  _task_get_template_index
1518:../MQXLITE/kernel/task.c **** (
1519:../MQXLITE/kernel/task.c ****     char_ptr name_ptr
1520:../MQXLITE/kernel/task.c **** )
1521:../MQXLITE/kernel/task.c **** { /* Body */
 1317              		.loc 1 1521 0
 1318              		.cfi_startproc
 1319 0000 80B5     		push	{r7, lr}
 1320              	.LCFI33:
 1321              		.cfi_def_cfa_offset 8
 1322              		.cfi_offset 7, -8
 1323              		.cfi_offset 14, -4
 1324 0002 84B0     		sub	sp, sp, #16
 1325              	.LCFI34:
 1326              		.cfi_def_cfa_offset 24
 1327 0004 00AF     		add	r7, sp, #0
 1328              	.LCFI35:
 1329              		.cfi_def_cfa_register 7
 1330 0006 7860     		str	r0, [r7, #4]
1522:../MQXLITE/kernel/task.c ****     KERNEL_DATA_STRUCT_PTR   kernel_data;
1523:../MQXLITE/kernel/task.c ****     TASK_TEMPLATE_STRUCT_PTR task_template_ptr;
1524:../MQXLITE/kernel/task.c **** 
1525:../MQXLITE/kernel/task.c ****     _GET_KERNEL_DATA(kernel_data);
 1331              		.loc 1 1525 0
 1332 0008 174B     		ldr	r3, .L75
 1333 000a 1B68     		ldr	r3, [r3]
 1334 000c BB60     		str	r3, [r7, #8]
1526:../MQXLITE/kernel/task.c **** 
1527:../MQXLITE/kernel/task.c ****     _lwsem_wait((LWSEM_STRUCT_PTR)&kernel_data->TASK_CREATE_LWSEM);
 1335              		.loc 1 1527 0
 1336 000e BB68     		ldr	r3, [r7, #8]
 1337 0010 F433     		add	r3, r3, #244
 1338 0012 181C     		mov	r0, r3
 1339 0014 FFF7FEFF 		bl	_lwsem_wait
1528:../MQXLITE/kernel/task.c **** 
1529:../MQXLITE/kernel/task.c ****     /* Search all the local task templates for one whose index matches */
1530:../MQXLITE/kernel/task.c ****     task_template_ptr = kernel_data->INIT.TASK_TEMPLATE_LIST;
 1340              		.loc 1 1530 0
 1341 0018 BA68     		ldr	r2, [r7, #8]
 1342 001a B823     		mov	r3, #184
 1343 001c 5B00     		lsl	r3, r3, #1
 1344 001e D358     		ldr	r3, [r2, r3]
 1345 0020 FB60     		str	r3, [r7, #12]
1531:../MQXLITE/kernel/task.c **** 
1532:../MQXLITE/kernel/task.c ****     while (task_template_ptr->TASK_TEMPLATE_INDEX)
 1346              		.loc 1 1532 0
 1347 0022 10E0     		b	.L70
 1348              	.L73:
1533:../MQXLITE/kernel/task.c ****     {
1534:../MQXLITE/kernel/task.c ****         if (task_template_ptr->TASK_NAME != NULL)
 1349              		.loc 1 1534 0
 1350 0024 FB68     		ldr	r3, [r7, #12]
 1351 0026 1B69     		ldr	r3, [r3, #16]
 1352 0028 002B     		cmp	r3, #0
 1353 002a 09D0     		beq	.L71
1535:../MQXLITE/kernel/task.c ****         {
1536:../MQXLITE/kernel/task.c ****             if (strncmp( task_template_ptr->TASK_NAME, name_ptr,
 1354              		.loc 1 1536 0
 1355 002c FB68     		ldr	r3, [r7, #12]
 1356 002e 1A69     		ldr	r2, [r3, #16]
 1357 0030 7B68     		ldr	r3, [r7, #4]
 1358 0032 101C     		mov	r0, r2
 1359 0034 191C     		mov	r1, r3
 1360 0036 3222     		mov	r2, #50
 1361 0038 FFF7FEFF 		bl	strncmp
 1362 003c 031C     		mov	r3, r0
 1363 003e 07D0     		beq	.L74
 1364              	.L71:
1537:../MQXLITE/kernel/task.c ****                             MQX_MAX_TASK_NAME_SIZE) == 0)
1538:../MQXLITE/kernel/task.c ****             {
1539:../MQXLITE/kernel/task.c ****                 break;
1540:../MQXLITE/kernel/task.c ****             } /* Endif */
1541:../MQXLITE/kernel/task.c ****         } /* Endif */
1542:../MQXLITE/kernel/task.c ****         ++task_template_ptr;
 1365              		.loc 1 1542 0
 1366 0040 FB68     		ldr	r3, [r7, #12]
 1367 0042 1C33     		add	r3, r3, #28
 1368 0044 FB60     		str	r3, [r7, #12]
 1369              	.L70:
1532:../MQXLITE/kernel/task.c ****     while (task_template_ptr->TASK_TEMPLATE_INDEX)
 1370              		.loc 1 1532 0 discriminator 1
 1371 0046 FB68     		ldr	r3, [r7, #12]
 1372 0048 1B68     		ldr	r3, [r3]
 1373 004a 002B     		cmp	r3, #0
 1374 004c EAD1     		bne	.L73
 1375 004e 00E0     		b	.L72
 1376              	.L74:
1539:../MQXLITE/kernel/task.c ****                 break;
 1377              		.loc 1 1539 0
 1378 0050 C046     		mov	r8, r8
 1379              	.L72:
1543:../MQXLITE/kernel/task.c ****     } /* Endwhile */
1544:../MQXLITE/kernel/task.c **** 
1545:../MQXLITE/kernel/task.c ****     _lwsem_post((LWSEM_STRUCT_PTR)&kernel_data->TASK_CREATE_LWSEM);
 1380              		.loc 1 1545 0
 1381 0052 BB68     		ldr	r3, [r7, #8]
 1382 0054 F433     		add	r3, r3, #244
 1383 0056 181C     		mov	r0, r3
 1384 0058 FFF7FEFF 		bl	_lwsem_post
1546:../MQXLITE/kernel/task.c **** 
1547:../MQXLITE/kernel/task.c ****     return task_template_ptr->TASK_TEMPLATE_INDEX;
 1385              		.loc 1 1547 0
 1386 005c FB68     		ldr	r3, [r7, #12]
 1387 005e 1B68     		ldr	r3, [r3]
1548:../MQXLITE/kernel/task.c **** 
1549:../MQXLITE/kernel/task.c **** } /* Endwhile */
 1388              		.loc 1 1549 0
 1389 0060 181C     		mov	r0, r3
 1390 0062 BD46     		mov	sp, r7
 1391 0064 04B0     		add	sp, sp, #16
 1392              		@ sp needed for prologue
 1393 0066 80BD     		pop	{r7, pc}
 1394              	.L76:
 1395              		.align	2
 1396              	.L75:
 1397 0068 00000000 		.word	_mqx_kernel_data
 1398              		.cfi_endproc
 1399              	.LFE11:
 1401              		.section	.text._task_get_id_from_td,"ax",%progbits
 1402              		.align	2
 1403              		.global	_task_get_id_from_td
 1404              		.code	16
 1405              		.thumb_func
 1407              	_task_get_id_from_td:
 1408              	.LFB12:
1550:../MQXLITE/kernel/task.c **** 
1551:../MQXLITE/kernel/task.c **** /*!
1552:../MQXLITE/kernel/task.c ****  * \brief Gets the task ID out of the task descriptor.
1553:../MQXLITE/kernel/task.c ****  *
1554:../MQXLITE/kernel/task.c ****  * \param[in] td_ptr Pointer to the task descriptor.
1555:../MQXLITE/kernel/task.c ****  *
1556:../MQXLITE/kernel/task.c ****  * \return TASK_ID Task ID
1557:../MQXLITE/kernel/task.c ****  * \return MQX_NULL_TASK_ID
1558:../MQXLITE/kernel/task.c ****  */
1559:../MQXLITE/kernel/task.c **** _task_id _task_get_id_from_td
1560:../MQXLITE/kernel/task.c **** (
1561:../MQXLITE/kernel/task.c ****     pointer td_ptr
1562:../MQXLITE/kernel/task.c **** )
1563:../MQXLITE/kernel/task.c **** {
 1409              		.loc 1 1563 0
 1410              		.cfi_startproc
 1411 0000 80B5     		push	{r7, lr}
 1412              	.LCFI36:
 1413              		.cfi_def_cfa_offset 8
 1414              		.cfi_offset 7, -8
 1415              		.cfi_offset 14, -4
 1416 0002 82B0     		sub	sp, sp, #8
 1417              	.LCFI37:
 1418              		.cfi_def_cfa_offset 16
 1419 0004 00AF     		add	r7, sp, #0
 1420              	.LCFI38:
 1421              		.cfi_def_cfa_register 7
 1422 0006 7860     		str	r0, [r7, #4]
1564:../MQXLITE/kernel/task.c ****     if (NULL == td_ptr)
 1423              		.loc 1 1564 0
 1424 0008 7B68     		ldr	r3, [r7, #4]
 1425 000a 002B     		cmp	r3, #0
 1426 000c 01D1     		bne	.L78
1565:../MQXLITE/kernel/task.c ****     {
1566:../MQXLITE/kernel/task.c ****         return MQX_NULL_TASK_ID;
 1427              		.loc 1 1566 0
 1428 000e 0023     		mov	r3, #0
 1429 0010 01E0     		b	.L79
 1430              	.L78:
1567:../MQXLITE/kernel/task.c ****     }
1568:../MQXLITE/kernel/task.c ****     return ((TD_STRUCT_PTR)td_ptr)->TASK_ID;
 1431              		.loc 1 1568 0
 1432 0012 7B68     		ldr	r3, [r7, #4]
 1433 0014 DB68     		ldr	r3, [r3, #12]
 1434              	.L79:
1569:../MQXLITE/kernel/task.c **** }
 1435              		.loc 1 1569 0
 1436 0016 181C     		mov	r0, r3
 1437 0018 BD46     		mov	sp, r7
 1438 001a 02B0     		add	sp, sp, #8
 1439              		@ sp needed for prologue
 1440 001c 80BD     		pop	{r7, pc}
 1441              		.cfi_endproc
 1442              	.LFE12:
 1444 001e C046     		.section	.text._task_get_index_from_id,"ax",%progbits
 1445              		.align	2
 1446              		.global	_task_get_index_from_id
 1447              		.code	16
 1448              		.thumb_func
 1450              	_task_get_index_from_id:
 1451              	.LFB13:
1570:../MQXLITE/kernel/task.c **** 
1571:../MQXLITE/kernel/task.c **** #if MQX_TD_HAS_TASK_TEMPLATE_PTR || MQX_TD_HAS_TEMPLATE_INDEX
1572:../MQXLITE/kernel/task.c **** 
1573:../MQXLITE/kernel/task.c **** /*!
1574:../MQXLITE/kernel/task.c ****  * \brief Gets the task template index for the task ID.
1575:../MQXLITE/kernel/task.c ****  *
1576:../MQXLITE/kernel/task.c ****  * \param[in] task_id Task ID to look up.
1577:../MQXLITE/kernel/task.c ****  *
1578:../MQXLITE/kernel/task.c ****  * \return Task template index.
1579:../MQXLITE/kernel/task.c ****  * \return 0 (Task ID was not found.)
1580:../MQXLITE/kernel/task.c ****  *
1581:../MQXLITE/kernel/task.c ****  * \see _task_get_template_index
1582:../MQXLITE/kernel/task.c ****  */
1583:../MQXLITE/kernel/task.c **** _mqx_uint _task_get_index_from_id
1584:../MQXLITE/kernel/task.c **** (
1585:../MQXLITE/kernel/task.c ****     _task_id task_id
1586:../MQXLITE/kernel/task.c **** )
1587:../MQXLITE/kernel/task.c **** { /* Body */
 1452              		.loc 1 1587 0
 1453              		.cfi_startproc
 1454 0000 80B5     		push	{r7, lr}
 1455              	.LCFI39:
 1456              		.cfi_def_cfa_offset 8
 1457              		.cfi_offset 7, -8
 1458              		.cfi_offset 14, -4
 1459 0002 84B0     		sub	sp, sp, #16
 1460              	.LCFI40:
 1461              		.cfi_def_cfa_offset 24
 1462 0004 00AF     		add	r7, sp, #0
 1463              	.LCFI41:
 1464              		.cfi_def_cfa_register 7
 1465 0006 7860     		str	r0, [r7, #4]
1588:../MQXLITE/kernel/task.c ****     TD_STRUCT_PTR           td_ptr;
1589:../MQXLITE/kernel/task.c **** 
1590:../MQXLITE/kernel/task.c ****     td_ptr = _task_get_td(task_id);
 1466              		.loc 1 1590 0
 1467 0008 7B68     		ldr	r3, [r7, #4]
 1468 000a 181C     		mov	r0, r3
 1469 000c FFF7FEFF 		bl	_task_get_td
 1470 0010 031C     		mov	r3, r0
 1471 0012 FB60     		str	r3, [r7, #12]
1591:../MQXLITE/kernel/task.c **** 
1592:../MQXLITE/kernel/task.c ****     if (td_ptr == NULL)
 1472              		.loc 1 1592 0
 1473 0014 FB68     		ldr	r3, [r7, #12]
 1474 0016 002B     		cmp	r3, #0
 1475 0018 01D1     		bne	.L81
1593:../MQXLITE/kernel/task.c ****     {
1594:../MQXLITE/kernel/task.c ****         return 0;
 1476              		.loc 1 1594 0
 1477 001a 0023     		mov	r3, #0
 1478 001c 02E0     		b	.L82
 1479              	.L81:
1595:../MQXLITE/kernel/task.c ****     } /* Endif */
1596:../MQXLITE/kernel/task.c **** 
1597:../MQXLITE/kernel/task.c **** #if MQX_TD_HAS_TASK_TEMPLATE_PTR
1598:../MQXLITE/kernel/task.c ****     return td_ptr->TASK_TEMPLATE_PTR->TASK_TEMPLATE_INDEX;
 1480              		.loc 1 1598 0
 1481 001e FB68     		ldr	r3, [r7, #12]
 1482 0020 9B6D     		ldr	r3, [r3, #88]
 1483 0022 1B68     		ldr	r3, [r3]
 1484              	.L82:
1599:../MQXLITE/kernel/task.c **** #elif MQX_TD_HAS_TEMPLATE_INDEX
1600:../MQXLITE/kernel/task.c ****     return td_ptr->TEMPLATE_INDEX;
1601:../MQXLITE/kernel/task.c **** #else
1602:../MQXLITE/kernel/task.c ****     return 0;
1603:../MQXLITE/kernel/task.c **** #endif
1604:../MQXLITE/kernel/task.c **** 
1605:../MQXLITE/kernel/task.c **** } /* Endbody */
 1485              		.loc 1 1605 0
 1486 0024 181C     		mov	r0, r3
 1487 0026 BD46     		mov	sp, r7
 1488 0028 04B0     		add	sp, sp, #16
 1489              		@ sp needed for prologue
 1490 002a 80BD     		pop	{r7, pc}
 1491              		.cfi_endproc
 1492              	.LFE13:
 1494              		.section	.text._task_get_parameter,"ax",%progbits
 1495              		.align	2
 1496              		.global	_task_get_parameter
 1497              		.code	16
 1498              		.thumb_func
 1500              	_task_get_parameter:
 1501              	.LFB14:
1606:../MQXLITE/kernel/task.c **** #endif /* MQX_TD_HAS_TASK_TEMPLATE_PTR || MQX_TD_HAS_TEMPLATE_INDEX */
1607:../MQXLITE/kernel/task.c **** 
1608:../MQXLITE/kernel/task.c **** /*!
1609:../MQXLITE/kernel/task.c ****  * \brief Gets the task creation parameter of the active task.
1610:../MQXLITE/kernel/task.c ****  *
1611:../MQXLITE/kernel/task.c ****  * If a deeply nested function needs the task creation parameter, it can get the
1612:../MQXLITE/kernel/task.c ****  * parameter with _task_get_parameter() or _task_get_parameter_for() rather than
1613:../MQXLITE/kernel/task.c ****  * have the task's main body pass the parameter to it.
1614:../MQXLITE/kernel/task.c ****  *
1615:../MQXLITE/kernel/task.c ****  * \return Creation parameter (might be NULL).
1616:../MQXLITE/kernel/task.c ****  *
1617:../MQXLITE/kernel/task.c ****  * \see _task_get_parameter_for
1618:../MQXLITE/kernel/task.c ****  * \see _task_set_parameter
1619:../MQXLITE/kernel/task.c ****  * \see _task_set_parameter_for
1620:../MQXLITE/kernel/task.c ****  * \see _task_create
1621:../MQXLITE/kernel/task.c ****  * \see _task_create_blocked
1622:../MQXLITE/kernel/task.c ****  * \see _task_create_at
1623:../MQXLITE/kernel/task.c ****  */
1624:../MQXLITE/kernel/task.c **** uint_32 _task_get_parameter(void)
1625:../MQXLITE/kernel/task.c **** { /* Body */
 1502              		.loc 1 1625 0
 1503              		.cfi_startproc
 1504 0000 80B5     		push	{r7, lr}
 1505              	.LCFI42:
 1506              		.cfi_def_cfa_offset 8
 1507              		.cfi_offset 7, -8
 1508              		.cfi_offset 14, -4
 1509 0002 82B0     		sub	sp, sp, #8
 1510              	.LCFI43:
 1511              		.cfi_def_cfa_offset 16
 1512 0004 00AF     		add	r7, sp, #0
 1513              	.LCFI44:
 1514              		.cfi_def_cfa_register 7
1626:../MQXLITE/kernel/task.c ****     KERNEL_DATA_STRUCT_PTR     kernel_data;
1627:../MQXLITE/kernel/task.c **** 
1628:../MQXLITE/kernel/task.c ****     _GET_KERNEL_DATA(kernel_data);
 1515              		.loc 1 1628 0
 1516 0006 064B     		ldr	r3, .L84
 1517 0008 1B68     		ldr	r3, [r3]
 1518 000a 7B60     		str	r3, [r7, #4]
1629:../MQXLITE/kernel/task.c **** 
1630:../MQXLITE/kernel/task.c ****     return _task_get_parameter_internal(kernel_data->ACTIVE_PTR);
 1519              		.loc 1 1630 0
 1520 000c 7B68     		ldr	r3, [r7, #4]
 1521 000e DB69     		ldr	r3, [r3, #28]
 1522 0010 181C     		mov	r0, r3
 1523 0012 FFF7FEFF 		bl	_task_get_parameter_internal
 1524 0016 031C     		mov	r3, r0
1631:../MQXLITE/kernel/task.c **** 
1632:../MQXLITE/kernel/task.c **** } /* Endbody */
 1525              		.loc 1 1632 0
 1526 0018 181C     		mov	r0, r3
 1527 001a BD46     		mov	sp, r7
 1528 001c 02B0     		add	sp, sp, #8
 1529              		@ sp needed for prologue
 1530 001e 80BD     		pop	{r7, pc}
 1531              	.L85:
 1532              		.align	2
 1533              	.L84:
 1534 0020 00000000 		.word	_mqx_kernel_data
 1535              		.cfi_endproc
 1536              	.LFE14:
 1538              		.section	.text._task_get_parameter_for,"ax",%progbits
 1539              		.align	2
 1540              		.global	_task_get_parameter_for
 1541              		.code	16
 1542              		.thumb_func
 1544              	_task_get_parameter_for:
 1545              	.LFB15:
1633:../MQXLITE/kernel/task.c **** 
1634:../MQXLITE/kernel/task.c **** /*!
1635:../MQXLITE/kernel/task.c ****  * \brief Gets the task creation parameter of the specified task.
1636:../MQXLITE/kernel/task.c ****  *
1637:../MQXLITE/kernel/task.c ****  * If a deeply nested function needs the task creation parameter, it can get the
1638:../MQXLITE/kernel/task.c ****  * parameter with _task_get_parameter() or _task_get_parameter_for() rather than
1639:../MQXLITE/kernel/task.c ****  * have the task's main body pass the parameter to it.
1640:../MQXLITE/kernel/task.c ****  *
1641:../MQXLITE/kernel/task.c ****  * \param[in] tid Task ID of the task to get creation parameter from.
1642:../MQXLITE/kernel/task.c ****  *
1643:../MQXLITE/kernel/task.c ****  * \return Creation parameter (might be NULL).
1644:../MQXLITE/kernel/task.c ****  *
1645:../MQXLITE/kernel/task.c ****  * \see _task_get_parameter
1646:../MQXLITE/kernel/task.c ****  * \see _task_set_parameter
1647:../MQXLITE/kernel/task.c ****  * \see _task_set_parameter_for
1648:../MQXLITE/kernel/task.c ****  * \see _task_create
1649:../MQXLITE/kernel/task.c ****  * \see _task_create_blocked
1650:../MQXLITE/kernel/task.c ****  * \see _task_create_at
1651:../MQXLITE/kernel/task.c ****  */
1652:../MQXLITE/kernel/task.c **** uint_32 _task_get_parameter_for
1653:../MQXLITE/kernel/task.c **** (
1654:../MQXLITE/kernel/task.c ****     _task_id  tid
1655:../MQXLITE/kernel/task.c **** )
1656:../MQXLITE/kernel/task.c **** { /* Body */
 1546              		.loc 1 1656 0
 1547              		.cfi_startproc
 1548 0000 80B5     		push	{r7, lr}
 1549              	.LCFI45:
 1550              		.cfi_def_cfa_offset 8
 1551              		.cfi_offset 7, -8
 1552              		.cfi_offset 14, -4
 1553 0002 84B0     		sub	sp, sp, #16
 1554              	.LCFI46:
 1555              		.cfi_def_cfa_offset 24
 1556 0004 00AF     		add	r7, sp, #0
 1557              	.LCFI47:
 1558              		.cfi_def_cfa_register 7
 1559 0006 7860     		str	r0, [r7, #4]
1657:../MQXLITE/kernel/task.c ****     TD_STRUCT_PTR td_ptr;
1658:../MQXLITE/kernel/task.c **** 
1659:../MQXLITE/kernel/task.c ****     td_ptr = (TD_STRUCT_PTR)_task_get_td(tid);
 1560              		.loc 1 1659 0
 1561 0008 7B68     		ldr	r3, [r7, #4]
 1562 000a 181C     		mov	r0, r3
 1563 000c FFF7FEFF 		bl	_task_get_td
 1564 0010 031C     		mov	r3, r0
 1565 0012 FB60     		str	r3, [r7, #12]
1660:../MQXLITE/kernel/task.c **** 
1661:../MQXLITE/kernel/task.c ****     return _task_get_parameter_internal(td_ptr);
 1566              		.loc 1 1661 0
 1567 0014 FB68     		ldr	r3, [r7, #12]
 1568 0016 181C     		mov	r0, r3
 1569 0018 FFF7FEFF 		bl	_task_get_parameter_internal
 1570 001c 031C     		mov	r3, r0
1662:../MQXLITE/kernel/task.c **** 
1663:../MQXLITE/kernel/task.c **** } /* Endbody */
 1571              		.loc 1 1663 0
 1572 001e 181C     		mov	r0, r3
 1573 0020 BD46     		mov	sp, r7
 1574 0022 04B0     		add	sp, sp, #16
 1575              		@ sp needed for prologue
 1576 0024 80BD     		pop	{r7, pc}
 1577              		.cfi_endproc
 1578              	.LFE15:
 1580 0026 C046     		.section	.text._task_get_parameter_internal,"ax",%progbits
 1581              		.align	2
 1582              		.global	_task_get_parameter_internal
 1583              		.code	16
 1584              		.thumb_func
 1586              	_task_get_parameter_internal:
 1587              	.LFB16:
1664:../MQXLITE/kernel/task.c **** 
1665:../MQXLITE/kernel/task.c **** /*!
1666:../MQXLITE/kernel/task.c ****  * \private
1667:../MQXLITE/kernel/task.c ****  *
1668:../MQXLITE/kernel/task.c ****  * \brief Gets the task creation parameter of the specified task.
1669:../MQXLITE/kernel/task.c ****  *
1670:../MQXLITE/kernel/task.c ****  * \param[in] td_ptr Task ID of the task to get creation parameter from.
1671:../MQXLITE/kernel/task.c ****  *
1672:../MQXLITE/kernel/task.c ****  * \return Creation parameter (might be NULL).
1673:../MQXLITE/kernel/task.c ****  *
1674:../MQXLITE/kernel/task.c ****  * \see _task_get_parameter
1675:../MQXLITE/kernel/task.c ****  * \see _task_get_parameter_for
1676:../MQXLITE/kernel/task.c ****  *
1677:../MQXLITE/kernel/task.c ****  * \see TD_STRUCT
1678:../MQXLITE/kernel/task.c ****  */
1679:../MQXLITE/kernel/task.c **** uint_32 _task_get_parameter_internal
1680:../MQXLITE/kernel/task.c **** (
1681:../MQXLITE/kernel/task.c ****     TD_STRUCT_PTR td_ptr
1682:../MQXLITE/kernel/task.c **** )
1683:../MQXLITE/kernel/task.c **** {
 1588              		.loc 1 1683 0
 1589              		.cfi_startproc
 1590 0000 80B5     		push	{r7, lr}
 1591              	.LCFI48:
 1592              		.cfi_def_cfa_offset 8
 1593              		.cfi_offset 7, -8
 1594              		.cfi_offset 14, -4
 1595 0002 84B0     		sub	sp, sp, #16
 1596              	.LCFI49:
 1597              		.cfi_def_cfa_offset 24
 1598 0004 00AF     		add	r7, sp, #0
 1599              	.LCFI50:
 1600              		.cfi_def_cfa_register 7
 1601 0006 7860     		str	r0, [r7, #4]
1684:../MQXLITE/kernel/task.c ****     PSP_STACK_START_STRUCT_PTR stack_start_ptr;
1685:../MQXLITE/kernel/task.c ****     stack_start_ptr = _psp_get_stack_start(td_ptr);
 1602              		.loc 1 1685 0
 1603 0008 7B68     		ldr	r3, [r7, #4]
 1604 000a 181C     		mov	r0, r3
 1605 000c FFF7FEFF 		bl	_psp_get_stack_start
 1606 0010 031C     		mov	r3, r0
 1607 0012 FB60     		str	r3, [r7, #12]
1686:../MQXLITE/kernel/task.c ****     return PSP_TASK_PARAM(stack_start_ptr);
 1608              		.loc 1 1686 0
 1609 0014 FB68     		ldr	r3, [r7, #12]
 1610 0016 DB6C     		ldr	r3, [r3, #76]
1687:../MQXLITE/kernel/task.c **** }
 1611              		.loc 1 1687 0
 1612 0018 181C     		mov	r0, r3
 1613 001a BD46     		mov	sp, r7
 1614 001c 04B0     		add	sp, sp, #16
 1615              		@ sp needed for prologue
 1616 001e 80BD     		pop	{r7, pc}
 1617              		.cfi_endproc
 1618              	.LFE16:
 1620              		.section	.text._task_set_parameter,"ax",%progbits
 1621              		.align	2
 1622              		.global	_task_set_parameter
 1623              		.code	16
 1624              		.thumb_func
 1626              	_task_set_parameter:
 1627              	.LFB17:
1688:../MQXLITE/kernel/task.c **** 
1689:../MQXLITE/kernel/task.c **** /*!
1690:../MQXLITE/kernel/task.c ****  * \brief Sets the task creation parameter of the active task.
1691:../MQXLITE/kernel/task.c ****  *
1692:../MQXLITE/kernel/task.c ****  * \param[in] new_value Value to set the task parameter to.
1693:../MQXLITE/kernel/task.c ****  *
1694:../MQXLITE/kernel/task.c ****  * \return Previous creation parameter (might be NULL).
1695:../MQXLITE/kernel/task.c ****  *
1696:../MQXLITE/kernel/task.c ****  * \see _task_get_parameter
1697:../MQXLITE/kernel/task.c ****  * \see _task_get_parameter_for
1698:../MQXLITE/kernel/task.c ****  * \see _task_set_parameter_for
1699:../MQXLITE/kernel/task.c ****  * \see _task_create
1700:../MQXLITE/kernel/task.c ****  * \see _task_create_blocked
1701:../MQXLITE/kernel/task.c ****  * \see _task_create_at
1702:../MQXLITE/kernel/task.c ****  */
1703:../MQXLITE/kernel/task.c **** uint_32 _task_set_parameter
1704:../MQXLITE/kernel/task.c **** (
1705:../MQXLITE/kernel/task.c ****     uint_32 new_value
1706:../MQXLITE/kernel/task.c **** )
1707:../MQXLITE/kernel/task.c **** { /* Body */
 1628              		.loc 1 1707 0
 1629              		.cfi_startproc
 1630 0000 80B5     		push	{r7, lr}
 1631              	.LCFI51:
 1632              		.cfi_def_cfa_offset 8
 1633              		.cfi_offset 7, -8
 1634              		.cfi_offset 14, -4
 1635 0002 84B0     		sub	sp, sp, #16
 1636              	.LCFI52:
 1637              		.cfi_def_cfa_offset 24
 1638 0004 00AF     		add	r7, sp, #0
 1639              	.LCFI53:
 1640              		.cfi_def_cfa_register 7
 1641 0006 7860     		str	r0, [r7, #4]
1708:../MQXLITE/kernel/task.c ****     KERNEL_DATA_STRUCT_PTR     kernel_data;
1709:../MQXLITE/kernel/task.c ****     uint_32                    old_value;
1710:../MQXLITE/kernel/task.c **** 
1711:../MQXLITE/kernel/task.c ****     _GET_KERNEL_DATA(kernel_data);
 1642              		.loc 1 1711 0
 1643 0008 084B     		ldr	r3, .L89
 1644 000a 1B68     		ldr	r3, [r3]
 1645 000c FB60     		str	r3, [r7, #12]
1712:../MQXLITE/kernel/task.c ****     _KLOGE2(KLOG_task_set_parameter, new_value);
1713:../MQXLITE/kernel/task.c **** 
1714:../MQXLITE/kernel/task.c ****     old_value = _task_set_parameter_internal(new_value, kernel_data->ACTIVE_PTR);
 1646              		.loc 1 1714 0
 1647 000e FB68     		ldr	r3, [r7, #12]
 1648 0010 DB69     		ldr	r3, [r3, #28]
 1649 0012 7A68     		ldr	r2, [r7, #4]
 1650 0014 101C     		mov	r0, r2
 1651 0016 191C     		mov	r1, r3
 1652 0018 FFF7FEFF 		bl	_task_set_parameter_internal
 1653 001c 031C     		mov	r3, r0
 1654 001e BB60     		str	r3, [r7, #8]
1715:../MQXLITE/kernel/task.c **** 
1716:../MQXLITE/kernel/task.c ****     _KLOGX2(KLOG_task_set_parameter, old_value);
1717:../MQXLITE/kernel/task.c ****     return old_value;
 1655              		.loc 1 1717 0
 1656 0020 BB68     		ldr	r3, [r7, #8]
1718:../MQXLITE/kernel/task.c **** 
1719:../MQXLITE/kernel/task.c **** } /* Endbody */
 1657              		.loc 1 1719 0
 1658 0022 181C     		mov	r0, r3
 1659 0024 BD46     		mov	sp, r7
 1660 0026 04B0     		add	sp, sp, #16
 1661              		@ sp needed for prologue
 1662 0028 80BD     		pop	{r7, pc}
 1663              	.L90:
 1664 002a C046     		.align	2
 1665              	.L89:
 1666 002c 00000000 		.word	_mqx_kernel_data
 1667              		.cfi_endproc
 1668              	.LFE17:
 1670              		.section	.text._task_set_parameter_for,"ax",%progbits
 1671              		.align	2
 1672              		.global	_task_set_parameter_for
 1673              		.code	16
 1674              		.thumb_func
 1676              	_task_set_parameter_for:
 1677              	.LFB18:
1720:../MQXLITE/kernel/task.c **** 
1721:../MQXLITE/kernel/task.c **** /*!
1722:../MQXLITE/kernel/task.c ****  * \brief Sets the task creation parameter of the specified task.
1723:../MQXLITE/kernel/task.c ****  *
1724:../MQXLITE/kernel/task.c ****  * \param[in] new_value Value to set the task parameter to.
1725:../MQXLITE/kernel/task.c ****  * \param[in] tid       Task ID of the task to set.
1726:../MQXLITE/kernel/task.c ****  *
1727:../MQXLITE/kernel/task.c ****  * \return Previous creation parameter (might be NULL).
1728:../MQXLITE/kernel/task.c ****  *
1729:../MQXLITE/kernel/task.c ****  * \see _task_get_parameter
1730:../MQXLITE/kernel/task.c ****  * \see _task_get_parameter_for
1731:../MQXLITE/kernel/task.c ****  * \see _task_set_parameter
1732:../MQXLITE/kernel/task.c ****  * \see _task_create
1733:../MQXLITE/kernel/task.c ****  * \see _task_create_blocked
1734:../MQXLITE/kernel/task.c ****  * \see _task_create_at
1735:../MQXLITE/kernel/task.c ****  */
1736:../MQXLITE/kernel/task.c **** uint_32 _task_set_parameter_for
1737:../MQXLITE/kernel/task.c **** (
1738:../MQXLITE/kernel/task.c ****     uint_32   new_value,
1739:../MQXLITE/kernel/task.c ****     _task_id  tid
1740:../MQXLITE/kernel/task.c **** )
1741:../MQXLITE/kernel/task.c **** { /* Body */
 1678              		.loc 1 1741 0
 1679              		.cfi_startproc
 1680 0000 80B5     		push	{r7, lr}
 1681              	.LCFI54:
 1682              		.cfi_def_cfa_offset 8
 1683              		.cfi_offset 7, -8
 1684              		.cfi_offset 14, -4
 1685 0002 86B0     		sub	sp, sp, #24
 1686              	.LCFI55:
 1687              		.cfi_def_cfa_offset 32
 1688 0004 00AF     		add	r7, sp, #0
 1689              	.LCFI56:
 1690              		.cfi_def_cfa_register 7
 1691 0006 7860     		str	r0, [r7, #4]
 1692 0008 3960     		str	r1, [r7]
1742:../MQXLITE/kernel/task.c ****     KERNEL_DATA_STRUCT_PTR  kernel_data;
1743:../MQXLITE/kernel/task.c ****     TD_STRUCT_PTR           td_ptr;
1744:../MQXLITE/kernel/task.c ****     uint_32                 old_value;
1745:../MQXLITE/kernel/task.c **** 
1746:../MQXLITE/kernel/task.c ****     _GET_KERNEL_DATA(kernel_data);
 1693              		.loc 1 1746 0
 1694 000a 0D4B     		ldr	r3, .L94
 1695 000c 1B68     		ldr	r3, [r3]
 1696 000e 7B61     		str	r3, [r7, #20]
1747:../MQXLITE/kernel/task.c ****     _KLOGE3(KLOG_task_set_parameter_for, tid, new_value);
1748:../MQXLITE/kernel/task.c **** 
1749:../MQXLITE/kernel/task.c ****     td_ptr = (TD_STRUCT_PTR)_task_get_td(tid);
 1697              		.loc 1 1749 0
 1698 0010 3B68     		ldr	r3, [r7]
 1699 0012 181C     		mov	r0, r3
 1700 0014 FFF7FEFF 		bl	_task_get_td
 1701 0018 031C     		mov	r3, r0
 1702 001a 3B61     		str	r3, [r7, #16]
1750:../MQXLITE/kernel/task.c **** #if MQX_CHECK_ERRORS
1751:../MQXLITE/kernel/task.c ****     if (td_ptr == NULL)
 1703              		.loc 1 1751 0
 1704 001c 3B69     		ldr	r3, [r7, #16]
 1705 001e 002B     		cmp	r3, #0
 1706 0020 01D1     		bne	.L92
1752:../MQXLITE/kernel/task.c ****     {
1753:../MQXLITE/kernel/task.c ****         _KLOGX3(KLOG_task_set_parameter_for, tid, MQX_INVALID_PARAMETER);
1754:../MQXLITE/kernel/task.c ****         return 0;
 1707              		.loc 1 1754 0
 1708 0022 0023     		mov	r3, #0
 1709 0024 08E0     		b	.L93
 1710              	.L92:
1755:../MQXLITE/kernel/task.c ****     } /* Endif */
1756:../MQXLITE/kernel/task.c **** #endif
1757:../MQXLITE/kernel/task.c **** 
1758:../MQXLITE/kernel/task.c ****     old_value = _task_set_parameter_internal(new_value, td_ptr);
 1711              		.loc 1 1758 0
 1712 0026 7A68     		ldr	r2, [r7, #4]
 1713 0028 3B69     		ldr	r3, [r7, #16]
 1714 002a 101C     		mov	r0, r2
 1715 002c 191C     		mov	r1, r3
 1716 002e FFF7FEFF 		bl	_task_set_parameter_internal
 1717 0032 031C     		mov	r3, r0
 1718 0034 FB60     		str	r3, [r7, #12]
1759:../MQXLITE/kernel/task.c **** 
1760:../MQXLITE/kernel/task.c ****     _KLOGX2(KLOG_task_set_parameter_for, old_value);
1761:../MQXLITE/kernel/task.c ****     return old_value;
 1719              		.loc 1 1761 0
 1720 0036 FB68     		ldr	r3, [r7, #12]
 1721              	.L93:
1762:../MQXLITE/kernel/task.c **** 
1763:../MQXLITE/kernel/task.c **** } /* Endbody */
 1722              		.loc 1 1763 0
 1723 0038 181C     		mov	r0, r3
 1724 003a BD46     		mov	sp, r7
 1725 003c 06B0     		add	sp, sp, #24
 1726              		@ sp needed for prologue
 1727 003e 80BD     		pop	{r7, pc}
 1728              	.L95:
 1729              		.align	2
 1730              	.L94:
 1731 0040 00000000 		.word	_mqx_kernel_data
 1732              		.cfi_endproc
 1733              	.LFE18:
 1735              		.section	.text._task_set_parameter_internal,"ax",%progbits
 1736              		.align	2
 1737              		.global	_task_set_parameter_internal
 1738              		.code	16
 1739              		.thumb_func
 1741              	_task_set_parameter_internal:
 1742              	.LFB19:
1764:../MQXLITE/kernel/task.c **** 
1765:../MQXLITE/kernel/task.c **** /*!
1766:../MQXLITE/kernel/task.c ****  * \private
1767:../MQXLITE/kernel/task.c ****  *
1768:../MQXLITE/kernel/task.c ****  * \brief Sets the task creation parameter of the specified task.
1769:../MQXLITE/kernel/task.c ****  *
1770:../MQXLITE/kernel/task.c ****  * \param[in] new_value Value to set the task parameter to.
1771:../MQXLITE/kernel/task.c ****  * \param[in] td_ptr    Task ID of the task to set.
1772:../MQXLITE/kernel/task.c ****  *
1773:../MQXLITE/kernel/task.c ****  * \return Previous creation parameter (might be NULL).
1774:../MQXLITE/kernel/task.c ****  *
1775:../MQXLITE/kernel/task.c ****  * \see _task_set_parameter
1776:../MQXLITE/kernel/task.c ****  * \see _task_set_parameter_for
1777:../MQXLITE/kernel/task.c ****  * \see TD_STRUCT
1778:../MQXLITE/kernel/task.c ****  */
1779:../MQXLITE/kernel/task.c **** uint_32 _task_set_parameter_internal
1780:../MQXLITE/kernel/task.c **** (
1781:../MQXLITE/kernel/task.c ****     uint_32       new_value,
1782:../MQXLITE/kernel/task.c ****     TD_STRUCT_PTR td_ptr
1783:../MQXLITE/kernel/task.c **** )
1784:../MQXLITE/kernel/task.c **** { /* Body */
 1743              		.loc 1 1784 0
 1744              		.cfi_startproc
 1745 0000 80B5     		push	{r7, lr}
 1746              	.LCFI57:
 1747              		.cfi_def_cfa_offset 8
 1748              		.cfi_offset 7, -8
 1749              		.cfi_offset 14, -4
 1750 0002 84B0     		sub	sp, sp, #16
 1751              	.LCFI58:
 1752              		.cfi_def_cfa_offset 24
 1753 0004 00AF     		add	r7, sp, #0
 1754              	.LCFI59:
 1755              		.cfi_def_cfa_register 7
 1756 0006 7860     		str	r0, [r7, #4]
 1757 0008 3960     		str	r1, [r7]
1785:../MQXLITE/kernel/task.c ****     PSP_STACK_START_STRUCT_PTR stack_start_ptr;
1786:../MQXLITE/kernel/task.c ****     uint_32                    old_value;
1787:../MQXLITE/kernel/task.c **** 
1788:../MQXLITE/kernel/task.c ****     stack_start_ptr = _psp_get_stack_start(td_ptr);
 1758              		.loc 1 1788 0
 1759 000a 3B68     		ldr	r3, [r7]
 1760 000c 181C     		mov	r0, r3
 1761 000e FFF7FEFF 		bl	_psp_get_stack_start
 1762 0012 031C     		mov	r3, r0
 1763 0014 FB60     		str	r3, [r7, #12]
1789:../MQXLITE/kernel/task.c **** 
1790:../MQXLITE/kernel/task.c ****     old_value = PSP_TASK_PARAM(stack_start_ptr);
 1764              		.loc 1 1790 0
 1765 0016 FB68     		ldr	r3, [r7, #12]
 1766 0018 DB6C     		ldr	r3, [r3, #76]
 1767 001a BB60     		str	r3, [r7, #8]
1791:../MQXLITE/kernel/task.c ****     PSP_TASK_PARAM(stack_start_ptr) = new_value;
 1768              		.loc 1 1791 0
 1769 001c FB68     		ldr	r3, [r7, #12]
 1770 001e 7A68     		ldr	r2, [r7, #4]
 1771 0020 DA64     		str	r2, [r3, #76]
1792:../MQXLITE/kernel/task.c **** 
1793:../MQXLITE/kernel/task.c ****     return old_value;
 1772              		.loc 1 1793 0
 1773 0022 BB68     		ldr	r3, [r7, #8]
1794:../MQXLITE/kernel/task.c **** 
1795:../MQXLITE/kernel/task.c **** } /* Endbody */
 1774              		.loc 1 1795 0
 1775 0024 181C     		mov	r0, r3
 1776 0026 BD46     		mov	sp, r7
 1777 0028 04B0     		add	sp, sp, #16
 1778              		@ sp needed for prologue
 1779 002a 80BD     		pop	{r7, pc}
 1780              		.cfi_endproc
 1781              	.LFE19:
 1783              		.section	.text._task_get_priority,"ax",%progbits
 1784              		.align	2
 1785              		.global	_task_get_priority
 1786              		.code	16
 1787              		.thumb_func
 1789              	_task_get_priority:
 1790              	.LFB20:
1796:../MQXLITE/kernel/task.c **** 
1797:../MQXLITE/kernel/task.c **** #if MQX_HAS_DYNAMIC_PRIORITIES
1798:../MQXLITE/kernel/task.c **** 
1799:../MQXLITE/kernel/task.c **** /*!
1800:../MQXLITE/kernel/task.c ****  * \brief Gets the priority of the task.
1801:../MQXLITE/kernel/task.c ****  *
1802:../MQXLITE/kernel/task.c ****  * \param[in]  task_id      One of the following:
1803:../MQXLITE/kernel/task.c ****  * \n - Task ID of the task for which to set or get info.
1804:../MQXLITE/kernel/task.c ****  * \n - MQX_NULL_TASK_ID (Use the calling task.)
1805:../MQXLITE/kernel/task.c ****  * \param[out] priority_ptr Pointer to the priority.
1806:../MQXLITE/kernel/task.c ****  *
1807:../MQXLITE/kernel/task.c ****  * \return MQX_OK
1808:../MQXLITE/kernel/task.c ****  * \return MQX_INVALID_TASK_ID (Task_id does not represent a currently valid task.)
1809:../MQXLITE/kernel/task.c ****  *
1810:../MQXLITE/kernel/task.c ****  * \warning Might dispatch a task.
1811:../MQXLITE/kernel/task.c ****  *
1812:../MQXLITE/kernel/task.c ****  * \see _task_set_priority
1813:../MQXLITE/kernel/task.c ****  * \see _task_get_creator
1814:../MQXLITE/kernel/task.c ****  * \see _task_get_processor
1815:../MQXLITE/kernel/task.c ****  * \see _sem_create
1816:../MQXLITE/kernel/task.c ****  * \see _sem_create_fast
1817:../MQXLITE/kernel/task.c ****  * \see _sem_wait
1818:../MQXLITE/kernel/task.c ****  * \see _sem_wait_for
1819:../MQXLITE/kernel/task.c ****  * \see _sem_wait_ticks
1820:../MQXLITE/kernel/task.c ****  * \see _sem_wait_until
1821:../MQXLITE/kernel/task.c ****  * \see _mutatr_get_sched_protocol
1822:../MQXLITE/kernel/task.c ****  * \see _mutatr_set_sched_protocol
1823:../MQXLITE/kernel/task.c ****  * \see _mutex_lock
1824:../MQXLITE/kernel/task.c ****  */
1825:../MQXLITE/kernel/task.c **** _mqx_uint _task_get_priority
1826:../MQXLITE/kernel/task.c **** (
1827:../MQXLITE/kernel/task.c ****     _task_id      task_id,
1828:../MQXLITE/kernel/task.c ****     _mqx_uint_ptr priority_ptr
1829:../MQXLITE/kernel/task.c **** )
1830:../MQXLITE/kernel/task.c **** { /* Body */
 1791              		.loc 1 1830 0
 1792              		.cfi_startproc
 1793 0000 80B5     		push	{r7, lr}
 1794              	.LCFI60:
 1795              		.cfi_def_cfa_offset 8
 1796              		.cfi_offset 7, -8
 1797              		.cfi_offset 14, -4
 1798 0002 84B0     		sub	sp, sp, #16
 1799              	.LCFI61:
 1800              		.cfi_def_cfa_offset 24
 1801 0004 00AF     		add	r7, sp, #0
 1802              	.LCFI62:
 1803              		.cfi_def_cfa_register 7
 1804 0006 7860     		str	r0, [r7, #4]
 1805 0008 3960     		str	r1, [r7]
1831:../MQXLITE/kernel/task.c ****     TD_STRUCT_PTR           td_ptr;
1832:../MQXLITE/kernel/task.c **** 
1833:../MQXLITE/kernel/task.c ****     td_ptr = (TD_STRUCT_PTR)_task_get_td(task_id);
 1806              		.loc 1 1833 0
 1807 000a 7B68     		ldr	r3, [r7, #4]
 1808 000c 181C     		mov	r0, r3
 1809 000e FFF7FEFF 		bl	_task_get_td
 1810 0012 031C     		mov	r3, r0
 1811 0014 FB60     		str	r3, [r7, #12]
1834:../MQXLITE/kernel/task.c ****     if (td_ptr == NULL)
 1812              		.loc 1 1834 0
 1813 0016 FB68     		ldr	r3, [r7, #12]
 1814 0018 002B     		cmp	r3, #0
 1815 001a 01D1     		bne	.L98
1835:../MQXLITE/kernel/task.c ****     {
1836:../MQXLITE/kernel/task.c ****         return(MQX_INVALID_TASK_ID);
 1816              		.loc 1 1836 0
 1817 001c 1223     		mov	r3, #18
 1818 001e 06E0     		b	.L99
 1819              	.L98:
1837:../MQXLITE/kernel/task.c ****     } /* Endif */
1838:../MQXLITE/kernel/task.c ****     *priority_ptr = td_ptr->HOME_QUEUE->PRIORITY;
 1820              		.loc 1 1838 0
 1821 0020 FB68     		ldr	r3, [r7, #12]
 1822 0022 1B6A     		ldr	r3, [r3, #32]
 1823 0024 DB89     		ldrh	r3, [r3, #14]
 1824 0026 1A1C     		mov	r2, r3
 1825 0028 3B68     		ldr	r3, [r7]
 1826 002a 1A60     		str	r2, [r3]
1839:../MQXLITE/kernel/task.c ****     return MQX_OK;
 1827              		.loc 1 1839 0
 1828 002c 0023     		mov	r3, #0
 1829              	.L99:
1840:../MQXLITE/kernel/task.c **** 
1841:../MQXLITE/kernel/task.c **** } /* Endbody */
 1830              		.loc 1 1841 0
 1831 002e 181C     		mov	r0, r3
 1832 0030 BD46     		mov	sp, r7
 1833 0032 04B0     		add	sp, sp, #16
 1834              		@ sp needed for prologue
 1835 0034 80BD     		pop	{r7, pc}
 1836              		.cfi_endproc
 1837              	.LFE20:
 1839 0036 C046     		.section	.text._task_set_priority,"ax",%progbits
 1840              		.align	2
 1841              		.global	_task_set_priority
 1842              		.code	16
 1843              		.thumb_func
 1845              	_task_set_priority:
 1846              	.LFB21:
1842:../MQXLITE/kernel/task.c **** 
1843:../MQXLITE/kernel/task.c **** /*!
1844:../MQXLITE/kernel/task.c ****  * \brief Sets the priority of the task.
1845:../MQXLITE/kernel/task.c ****  *
1846:../MQXLITE/kernel/task.c ****  * MQX might boost the priority of a task that waits for a semaphore or locks a
1847:../MQXLITE/kernel/task.c ****  * mutex. If MQX has boosted the priority of the task that is specified by task_id,
1848:../MQXLITE/kernel/task.c ****  * _task_set_priority() will raise but not lower the task's priority.
1849:../MQXLITE/kernel/task.c ****  * \n If the task is in the blocked state, priority change takes place when task
1850:../MQXLITE/kernel/task.c ****  * is ready.
1851:../MQXLITE/kernel/task.c ****  * \n When the task is in the ready state, priority change takes place immediately.
1852:../MQXLITE/kernel/task.c ****  *
1853:../MQXLITE/kernel/task.c ****  * \param[in]  task_id      One of the following:
1854:../MQXLITE/kernel/task.c ****  * \n - Task ID of the task for which to set or get info.
1855:../MQXLITE/kernel/task.c ****  * \n - MQX_NULL_TASK_ID (Use the calling task.)
1856:../MQXLITE/kernel/task.c ****  * \param[in]  new_priority New task priority.
1857:../MQXLITE/kernel/task.c ****  * \param[out] priority_ptr Pointer to the previous task priority.
1858:../MQXLITE/kernel/task.c ****  *
1859:../MQXLITE/kernel/task.c ****  * \return MQX_OK
1860:../MQXLITE/kernel/task.c ****  * \return MQX_INVALID_TASK_ID (Task_id does not represent a currently valid task.)
1861:../MQXLITE/kernel/task.c ****  * \return MQX_INVALID_PARAMETER (New_priority is numerically greater than the
1862:../MQXLITE/kernel/task.c ****  * lowest-allowable priority of an application task.)
1863:../MQXLITE/kernel/task.c ****  *
1864:../MQXLITE/kernel/task.c ****  * \warning Might dispatch a task.
1865:../MQXLITE/kernel/task.c ****  *
1866:../MQXLITE/kernel/task.c ****  * \see _task_get_priority
1867:../MQXLITE/kernel/task.c ****  * \see _task_get_creator
1868:../MQXLITE/kernel/task.c ****  * \see _task_get_processor
1869:../MQXLITE/kernel/task.c ****  * \see _sem_create
1870:../MQXLITE/kernel/task.c ****  * \see _sem_create_fast
1871:../MQXLITE/kernel/task.c ****  * \see _sem_wait
1872:../MQXLITE/kernel/task.c ****  * \see _sem_wait_for
1873:../MQXLITE/kernel/task.c ****  * \see _sem_wait_ticks
1874:../MQXLITE/kernel/task.c ****  * \see _sem_wait_until
1875:../MQXLITE/kernel/task.c ****  * \see _mutatr_get_sched_protocol
1876:../MQXLITE/kernel/task.c ****  * \see _mutatr_set_sched_protocol
1877:../MQXLITE/kernel/task.c ****  * \see _mutex_lock
1878:../MQXLITE/kernel/task.c ****  */
1879:../MQXLITE/kernel/task.c **** _mqx_uint _task_set_priority
1880:../MQXLITE/kernel/task.c **** (
1881:../MQXLITE/kernel/task.c ****     _task_id     task_id,
1882:../MQXLITE/kernel/task.c ****     _mqx_uint     new_priority,
1883:../MQXLITE/kernel/task.c ****     _mqx_uint_ptr priority_ptr
1884:../MQXLITE/kernel/task.c **** )
1885:../MQXLITE/kernel/task.c **** { /* Body */
 1847              		.loc 1 1885 0
 1848              		.cfi_startproc
 1849 0000 80B5     		push	{r7, lr}
 1850              	.LCFI63:
 1851              		.cfi_def_cfa_offset 8
 1852              		.cfi_offset 7, -8
 1853              		.cfi_offset 14, -4
 1854 0002 8AB0     		sub	sp, sp, #40
 1855              	.LCFI64:
 1856              		.cfi_def_cfa_offset 48
 1857 0004 00AF     		add	r7, sp, #0
 1858              	.LCFI65:
 1859              		.cfi_def_cfa_register 7
 1860 0006 F860     		str	r0, [r7, #12]
 1861 0008 B960     		str	r1, [r7, #8]
 1862 000a 7A60     		str	r2, [r7, #4]
1886:../MQXLITE/kernel/task.c ****     KERNEL_DATA_STRUCT_PTR  kernel_data;
1887:../MQXLITE/kernel/task.c ****     READY_Q_STRUCT_PTR      ready_q_ptr;
1888:../MQXLITE/kernel/task.c ****     TD_STRUCT_PTR           td_ptr;
1889:../MQXLITE/kernel/task.c ****     TASK_QUEUE_STRUCT_PTR   task_queue_ptr;
1890:../MQXLITE/kernel/task.c **** 
1891:../MQXLITE/kernel/task.c ****     _GET_KERNEL_DATA(kernel_data);
 1863              		.loc 1 1891 0
 1864 000c 384B     		ldr	r3, .L107
 1865 000e 1B68     		ldr	r3, [r3]
 1866 0010 7B62     		str	r3, [r7, #36]
1892:../MQXLITE/kernel/task.c **** 
1893:../MQXLITE/kernel/task.c ****     _KLOGE3(KLOG_task_set_priority, task_id, new_priority);
1894:../MQXLITE/kernel/task.c **** 
1895:../MQXLITE/kernel/task.c **** #if MQX_CHECK_ERRORS
1896:../MQXLITE/kernel/task.c ****     if (new_priority > kernel_data->LOWEST_TASK_PRIORITY)
 1867              		.loc 1 1896 0
 1868 0012 7A6A     		ldr	r2, [r7, #36]
 1869 0014 C423     		mov	r3, #196
 1870 0016 D258     		ldr	r2, [r2, r3]
 1871 0018 BB68     		ldr	r3, [r7, #8]
 1872 001a 9A42     		cmp	r2, r3
 1873 001c 01D2     		bcs	.L101
1897:../MQXLITE/kernel/task.c ****     {
1898:../MQXLITE/kernel/task.c ****         _KLOGX2(KLOG_task_set_priority, MQX_INVALID_PARAMETER);
1899:../MQXLITE/kernel/task.c ****         return(MQX_INVALID_PARAMETER);
 1874              		.loc 1 1899 0
 1875 001e 0C23     		mov	r3, #12
 1876 0020 61E0     		b	.L102
 1877              	.L101:
1900:../MQXLITE/kernel/task.c ****     }/* Endif */
1901:../MQXLITE/kernel/task.c **** #endif
1902:../MQXLITE/kernel/task.c **** 
1903:../MQXLITE/kernel/task.c ****     td_ptr = (TD_STRUCT_PTR)_task_get_td(task_id);
 1878              		.loc 1 1903 0
 1879 0022 FB68     		ldr	r3, [r7, #12]
 1880 0024 181C     		mov	r0, r3
 1881 0026 FFF7FEFF 		bl	_task_get_td
 1882 002a 031C     		mov	r3, r0
 1883 002c 3B62     		str	r3, [r7, #32]
1904:../MQXLITE/kernel/task.c ****     if (td_ptr == NULL)
 1884              		.loc 1 1904 0
 1885 002e 3B6A     		ldr	r3, [r7, #32]
 1886 0030 002B     		cmp	r3, #0
 1887 0032 01D1     		bne	.L103
1905:../MQXLITE/kernel/task.c ****     {
1906:../MQXLITE/kernel/task.c ****         _KLOGX2(KLOG_task_set_priority, MQX_INVALID_TASK_ID);
1907:../MQXLITE/kernel/task.c ****         return(MQX_INVALID_TASK_ID);
 1888              		.loc 1 1907 0
 1889 0034 1223     		mov	r3, #18
 1890 0036 56E0     		b	.L102
 1891              	.L103:
1908:../MQXLITE/kernel/task.c ****     } /* Endif */
1909:../MQXLITE/kernel/task.c **** 
1910:../MQXLITE/kernel/task.c ****     _int_disable();
 1892              		.loc 1 1910 0
 1893 0038 FFF7FEFF 		bl	_int_disable
1911:../MQXLITE/kernel/task.c ****     /* Return old priority */
1912:../MQXLITE/kernel/task.c ****     *priority_ptr = td_ptr->HOME_QUEUE->PRIORITY;
 1894              		.loc 1 1912 0
 1895 003c 3B6A     		ldr	r3, [r7, #32]
 1896 003e 1B6A     		ldr	r3, [r3, #32]
 1897 0040 DB89     		ldrh	r3, [r3, #14]
 1898 0042 1A1C     		mov	r2, r3
 1899 0044 7B68     		ldr	r3, [r7, #4]
 1900 0046 1A60     		str	r2, [r3]
1913:../MQXLITE/kernel/task.c **** 
1914:../MQXLITE/kernel/task.c ****     /* Make the change permanent */
1915:../MQXLITE/kernel/task.c ****     ready_q_ptr = kernel_data->READY_Q_LIST;
 1901              		.loc 1 1915 0
 1902 0048 7B6A     		ldr	r3, [r7, #36]
 1903 004a 1B6A     		ldr	r3, [r3, #32]
 1904 004c FB61     		str	r3, [r7, #28]
1916:../MQXLITE/kernel/task.c ****     td_ptr->HOME_QUEUE = ready_q_ptr - new_priority;
 1905              		.loc 1 1916 0
 1906 004e BB68     		ldr	r3, [r7, #8]
 1907 0050 1B01     		lsl	r3, r3, #4
 1908 0052 5B42     		neg	r3, r3
 1909 0054 FA69     		ldr	r2, [r7, #28]
 1910 0056 D218     		add	r2, r2, r3
 1911 0058 3B6A     		ldr	r3, [r7, #32]
 1912 005a 1A62     		str	r2, [r3, #32]
1917:../MQXLITE/kernel/task.c **** 
1918:../MQXLITE/kernel/task.c ****     if (td_ptr->BOOSTED)
 1913              		.loc 1 1918 0
 1914 005c 3B6A     		ldr	r3, [r7, #32]
 1915 005e 5B6C     		ldr	r3, [r3, #68]
 1916 0060 002B     		cmp	r3, #0
 1917 0062 0DD0     		beq	.L104
1919:../MQXLITE/kernel/task.c ****     {
1920:../MQXLITE/kernel/task.c ****         /* Can only change priority to a higher (lower value) */
1921:../MQXLITE/kernel/task.c ****         if (new_priority < td_ptr->MY_QUEUE->PRIORITY)
 1918              		.loc 1 1921 0
 1919 0064 3B6A     		ldr	r3, [r7, #32]
 1920 0066 DB69     		ldr	r3, [r3, #28]
 1921 0068 DB89     		ldrh	r3, [r3, #14]
 1922 006a 1A1C     		mov	r2, r3
 1923 006c BB68     		ldr	r3, [r7, #8]
 1924 006e 9A42     		cmp	r2, r3
 1925 0070 0CD9     		bls	.L105
1922:../MQXLITE/kernel/task.c ****         {
1923:../MQXLITE/kernel/task.c ****             /* Move the task to the correct priority level */
1924:../MQXLITE/kernel/task.c ****             _sched_set_priority_internal(td_ptr, new_priority);
 1926              		.loc 1 1924 0
 1927 0072 3A6A     		ldr	r2, [r7, #32]
 1928 0074 BB68     		ldr	r3, [r7, #8]
 1929 0076 101C     		mov	r0, r2
 1930 0078 191C     		mov	r1, r3
 1931 007a FFF7FEFF 		bl	_sched_set_priority_internal
 1932 007e 05E0     		b	.L105
 1933              	.L104:
1925:../MQXLITE/kernel/task.c ****         } /* Endif */
1926:../MQXLITE/kernel/task.c ****     }
1927:../MQXLITE/kernel/task.c ****     else
1928:../MQXLITE/kernel/task.c ****     {
1929:../MQXLITE/kernel/task.c ****         /* Move the task to the correct priority level */
1930:../MQXLITE/kernel/task.c ****         _sched_set_priority_internal(td_ptr, new_priority);
 1934              		.loc 1 1930 0
 1935 0080 3A6A     		ldr	r2, [r7, #32]
 1936 0082 BB68     		ldr	r3, [r7, #8]
 1937 0084 101C     		mov	r0, r2
 1938 0086 191C     		mov	r1, r3
 1939 0088 FFF7FEFF 		bl	_sched_set_priority_internal
 1940              	.L105:
1931:../MQXLITE/kernel/task.c ****     } /* Endif */
1932:../MQXLITE/kernel/task.c **** 
1933:../MQXLITE/kernel/task.c ****     if (td_ptr->STATE == TASK_QUEUE_BLOCKED)
 1941              		.loc 1 1933 0
 1942 008c 3B6A     		ldr	r3, [r7, #32]
 1943 008e 9A68     		ldr	r2, [r3, #8]
 1944 0090 184B     		ldr	r3, .L107+4
 1945 0092 9A42     		cmp	r2, r3
 1946 0094 22D1     		bne	.L106
1934:../MQXLITE/kernel/task.c ****     {
1935:../MQXLITE/kernel/task.c ****         task_queue_ptr = (TASK_QUEUE_STRUCT_PTR)
1936:../MQXLITE/kernel/task.c ****                          ((uchar_ptr)td_ptr->INFO - FIELD_OFFSET(TASK_QUEUE_STRUCT, TD_QUEUE));
 1947              		.loc 1 1936 0
 1948 0096 3B6A     		ldr	r3, [r7, #32]
 1949 0098 DB6A     		ldr	r3, [r3, #44]
 1950 009a 103B     		sub	r3, r3, #16
1935:../MQXLITE/kernel/task.c ****         task_queue_ptr = (TASK_QUEUE_STRUCT_PTR)
 1951              		.loc 1 1935 0
 1952 009c BB61     		str	r3, [r7, #24]
1937:../MQXLITE/kernel/task.c ****         if (task_queue_ptr->POLICY & MQX_TASK_QUEUE_BY_PRIORITY)
 1953              		.loc 1 1937 0
 1954 009e BB69     		ldr	r3, [r7, #24]
 1955 00a0 DA68     		ldr	r2, [r3, #12]
 1956 00a2 0823     		mov	r3, #8
 1957 00a4 1340     		and	r3, r2
 1958 00a6 19D0     		beq	.L106
 1959              	.LBB12:
1938:../MQXLITE/kernel/task.c ****         {
1939:../MQXLITE/kernel/task.c ****             /* Requeue the td by priority */
1940:../MQXLITE/kernel/task.c ****             _QUEUE_REMOVE(&task_queue_ptr->TD_QUEUE, td_ptr);
 1960              		.loc 1 1940 0
 1961 00a8 3B6A     		ldr	r3, [r7, #32]
 1962 00aa 5B68     		ldr	r3, [r3, #4]
 1963 00ac 7B61     		str	r3, [r7, #20]
 1964 00ae 3B6A     		ldr	r3, [r7, #32]
 1965 00b0 1B68     		ldr	r3, [r3]
 1966 00b2 3B61     		str	r3, [r7, #16]
 1967 00b4 7B69     		ldr	r3, [r7, #20]
 1968 00b6 3A69     		ldr	r2, [r7, #16]
 1969 00b8 1A60     		str	r2, [r3]
 1970 00ba 3B69     		ldr	r3, [r7, #16]
 1971 00bc 7A69     		ldr	r2, [r7, #20]
 1972 00be 5A60     		str	r2, [r3, #4]
 1973              	.LBE12:
 1974 00c0 BB69     		ldr	r3, [r7, #24]
 1975 00c2 1033     		add	r3, r3, #16
 1976 00c4 1A89     		ldrh	r2, [r3, #8]
 1977 00c6 013A     		sub	r2, r2, #1
 1978 00c8 92B2     		uxth	r2, r2
 1979 00ca 1A81     		strh	r2, [r3, #8]
1941:../MQXLITE/kernel/task.c ****             _sched_insert_priorityq_internal(&task_queue_ptr->TD_QUEUE, td_ptr);
 1980              		.loc 1 1941 0
 1981 00cc BB69     		ldr	r3, [r7, #24]
 1982 00ce 1A1C     		mov	r2, r3
 1983 00d0 1032     		add	r2, r2, #16
 1984 00d2 3B6A     		ldr	r3, [r7, #32]
 1985 00d4 101C     		mov	r0, r2
 1986 00d6 191C     		mov	r1, r3
 1987 00d8 FFF7FEFF 		bl	_sched_insert_priorityq_internal
 1988              	.L106:
1942:../MQXLITE/kernel/task.c ****         }/* Endif */
1943:../MQXLITE/kernel/task.c ****     }/* Endif */
1944:../MQXLITE/kernel/task.c **** 
1945:../MQXLITE/kernel/task.c ****     /* Allow higher priority tasks to run */
1946:../MQXLITE/kernel/task.c ****     _CHECK_RUN_SCHEDULER();
 1989              		.loc 1 1946 0
 1990 00dc FFF7FEFF 		bl	_sched_check_scheduler_internal
1947:../MQXLITE/kernel/task.c **** 
1948:../MQXLITE/kernel/task.c ****     _int_enable();
 1991              		.loc 1 1948 0
 1992 00e0 FFF7FEFF 		bl	_int_enable
1949:../MQXLITE/kernel/task.c **** 
1950:../MQXLITE/kernel/task.c ****     _KLOGX2(KLOG_task_set_priority, MQX_OK);
1951:../MQXLITE/kernel/task.c ****     return MQX_OK;
 1993              		.loc 1 1951 0
 1994 00e4 0023     		mov	r3, #0
 1995              	.L102:
1952:../MQXLITE/kernel/task.c **** 
1953:../MQXLITE/kernel/task.c **** } /* Endbody */
 1996              		.loc 1 1953 0
 1997 00e6 181C     		mov	r0, r3
 1998 00e8 BD46     		mov	sp, r7
 1999 00ea 0AB0     		add	sp, sp, #40
 2000              		@ sp needed for prologue
 2001 00ec 80BD     		pop	{r7, pc}
 2002              	.L108:
 2003 00ee C046     		.align	2
 2004              	.L107:
 2005 00f0 00000000 		.word	_mqx_kernel_data
 2006 00f4 29020000 		.word	553
 2007              		.cfi_endproc
 2008              	.LFE21:
 2010              		.section	.text._task_ready,"ax",%progbits
 2011              		.align	2
 2012              		.global	_task_ready
 2013              		.code	16
 2014              		.thumb_func
 2016              	_task_ready:
 2017              	.LFB22:
1954:../MQXLITE/kernel/task.c **** 
1955:../MQXLITE/kernel/task.c **** #endif /* MQX_HAS_DYNAMIC_PRIORITIES */
1956:../MQXLITE/kernel/task.c **** 
1957:../MQXLITE/kernel/task.c **** /*!
1958:../MQXLITE/kernel/task.c ****  * \brief Makes the task ready to run by putting it in its ready queue.
1959:../MQXLITE/kernel/task.c ****  *
1960:../MQXLITE/kernel/task.c ****  * This function is the only way to make ready a task that called _task_block().
1961:../MQXLITE/kernel/task.c ****  *
1962:../MQXLITE/kernel/task.c ****  * \param[in] td Pointer to the task descriptor of the task (on this processor)
1963:../MQXLITE/kernel/task.c ****  * to be made ready.
1964:../MQXLITE/kernel/task.c ****  *
1965:../MQXLITE/kernel/task.c ****  * \warning If the new ready task has higher priority than the calling task,
1966:../MQXLITE/kernel/task.c ****  * MQX makes the new ready task active.
1967:../MQXLITE/kernel/task.c ****  * \warning Might set one of the following task error codes:
1968:../MQXLITE/kernel/task.c ****  * \n - MQX_INVALID_TASK_ID (Task_id is not valid for this processor.)
1969:../MQXLITE/kernel/task.c ****  * \n - MQX_INVALID_TASK_STATE (Task is already in its ready queue.)
1970:../MQXLITE/kernel/task.c ****  *
1971:../MQXLITE/kernel/task.c ****  * \see _task_block
1972:../MQXLITE/kernel/task.c ****  * \see _time_dequeue
1973:../MQXLITE/kernel/task.c ****  * \see _taskq_resume
1974:../MQXLITE/kernel/task.c ****  */
1975:../MQXLITE/kernel/task.c **** void _task_ready
1976:../MQXLITE/kernel/task.c **** (
1977:../MQXLITE/kernel/task.c ****     pointer td
1978:../MQXLITE/kernel/task.c **** )
1979:../MQXLITE/kernel/task.c **** {
 2018              		.loc 1 1979 0
 2019              		.cfi_startproc
 2020 0000 80B5     		push	{r7, lr}
 2021              	.LCFI66:
 2022              		.cfi_def_cfa_offset 8
 2023              		.cfi_offset 7, -8
 2024              		.cfi_offset 14, -4
 2025 0002 84B0     		sub	sp, sp, #16
 2026              	.LCFI67:
 2027              		.cfi_def_cfa_offset 24
 2028 0004 00AF     		add	r7, sp, #0
 2029              	.LCFI68:
 2030              		.cfi_def_cfa_register 7
 2031 0006 7860     		str	r0, [r7, #4]
1980:../MQXLITE/kernel/task.c ****     KERNEL_DATA_STRUCT_PTR  kernel_data;
1981:../MQXLITE/kernel/task.c ****     TD_STRUCT_PTR           td_ptr = (TD_STRUCT_PTR)td;
 2032              		.loc 1 1981 0
 2033 0008 7B68     		ldr	r3, [r7, #4]
 2034 000a FB60     		str	r3, [r7, #12]
1982:../MQXLITE/kernel/task.c **** 
1983:../MQXLITE/kernel/task.c **** #if MQX_ENABLE_USER_MODE && MQX_ENABLE_USER_STDAPI
1984:../MQXLITE/kernel/task.c ****     if (MQX_RUN_IN_USER_MODE)
1985:../MQXLITE/kernel/task.c ****     {
1986:../MQXLITE/kernel/task.c ****         _usr_task_ready(td);
1987:../MQXLITE/kernel/task.c ****         return;
1988:../MQXLITE/kernel/task.c ****     }
1989:../MQXLITE/kernel/task.c **** #endif
1990:../MQXLITE/kernel/task.c **** 
1991:../MQXLITE/kernel/task.c ****     _GET_KERNEL_DATA(kernel_data);
 2035              		.loc 1 1991 0
 2036 000c 214B     		ldr	r3, .L116
 2037 000e 1B68     		ldr	r3, [r3]
 2038 0010 BB60     		str	r3, [r7, #8]
1992:../MQXLITE/kernel/task.c **** 
1993:../MQXLITE/kernel/task.c ****     /* Perform a validity check on the td */
1994:../MQXLITE/kernel/task.c **** #if MQX_CHECK_ERRORS
1995:../MQXLITE/kernel/task.c ****     if (PROC_NUMBER_FROM_TASKID(td_ptr->TASK_ID) != kernel_data->INIT.PROCESSOR_NUMBER)
 2039              		.loc 1 1995 0
 2040 0012 FB68     		ldr	r3, [r7, #12]
 2041 0014 DB68     		ldr	r3, [r3, #12]
 2042 0016 1B0C     		lsr	r3, r3, #16
 2043 0018 9BB2     		uxth	r3, r3
 2044 001a 1A1C     		mov	r2, r3
 2045 001c B968     		ldr	r1, [r7, #8]
 2046 001e A823     		mov	r3, #168
 2047 0020 5B00     		lsl	r3, r3, #1
 2048 0022 CB58     		ldr	r3, [r1, r3]
 2049 0024 9A42     		cmp	r2, r3
 2050 0026 03D0     		beq	.L110
1996:../MQXLITE/kernel/task.c ****     {
1997:../MQXLITE/kernel/task.c ****         _KLOGE2(KLOG_task_ready, td_ptr);
1998:../MQXLITE/kernel/task.c ****         _task_set_error(MQX_INVALID_TASK_ID);
 2051              		.loc 1 1998 0
 2052 0028 1220     		mov	r0, #18
 2053 002a FFF7FEFF 		bl	_task_set_error
1999:../MQXLITE/kernel/task.c ****         _KLOGX1(KLOG_task_ready);
2000:../MQXLITE/kernel/task.c ****         return;
 2054              		.loc 1 2000 0
 2055 002e 2EE0     		b	.L109
 2056              	.L110:
2001:../MQXLITE/kernel/task.c ****     }
2002:../MQXLITE/kernel/task.c **** #endif
2003:../MQXLITE/kernel/task.c **** 
2004:../MQXLITE/kernel/task.c ****     _INT_DISABLE();
 2057              		.loc 1 2004 0
 2058 0030 BB68     		ldr	r3, [r7, #8]
 2059 0032 DB69     		ldr	r3, [r3, #28]
 2060 0034 9B6C     		ldr	r3, [r3, #72]
 2061 0036 002B     		cmp	r3, #0
 2062 0038 00D1     		bne	.L112
 2063              		.loc 1 2004 0 is_stmt 0 discriminator 1
 2064              	@ 2004 "../MQXLITE/kernel/task.c" 1
 2065 003a 72B6     		cpsid i
 2066              	@ 0 "" 2
 2067              		.code	16
 2068              	.L112:
 2069              		.loc 1 2004 0 discriminator 2
 2070 003c BB68     		ldr	r3, [r7, #8]
 2071 003e DB69     		ldr	r3, [r3, #28]
 2072 0040 9A6C     		ldr	r2, [r3, #72]
 2073 0042 0132     		add	r2, r2, #1
 2074 0044 9A64     		str	r2, [r3, #72]
2005:../MQXLITE/kernel/task.c **** 
2006:../MQXLITE/kernel/task.c ****     if (td_ptr->STATE == READY)
 2075              		.loc 1 2006 0 is_stmt 1 discriminator 2
 2076 0046 FB68     		ldr	r3, [r7, #12]
 2077 0048 9B68     		ldr	r3, [r3, #8]
 2078 004a 022B     		cmp	r3, #2
 2079 004c 05D1     		bne	.L113
2007:../MQXLITE/kernel/task.c ****     {
2008:../MQXLITE/kernel/task.c ****         /* The task is already on the ready to run Queue! */
2009:../MQXLITE/kernel/task.c ****         _int_enable();
 2080              		.loc 1 2009 0
 2081 004e FFF7FEFF 		bl	_int_enable
2010:../MQXLITE/kernel/task.c ****         _KLOGE2(KLOG_task_ready, td_ptr);
2011:../MQXLITE/kernel/task.c ****         _task_set_error(MQX_INVALID_TASK_STATE);
 2082              		.loc 1 2011 0
 2083 0052 1120     		mov	r0, #17
 2084 0054 FFF7FEFF 		bl	_task_set_error
2012:../MQXLITE/kernel/task.c ****         _KLOGX1(KLOG_task_ready);
2013:../MQXLITE/kernel/task.c ****         return;
 2085              		.loc 1 2013 0
 2086 0058 19E0     		b	.L109
 2087              	.L113:
2014:../MQXLITE/kernel/task.c ****     }/* Endif */
2015:../MQXLITE/kernel/task.c **** 
2016:../MQXLITE/kernel/task.c ****     _task_ready_internal(td_ptr);
 2088              		.loc 1 2016 0
 2089 005a FB68     		ldr	r3, [r7, #12]
 2090 005c 181C     		mov	r0, r3
 2091 005e FFF7FEFF 		bl	_task_ready_internal
2017:../MQXLITE/kernel/task.c **** 
2018:../MQXLITE/kernel/task.c ****     _INT_ENABLE();
 2092              		.loc 1 2018 0
 2093 0062 BB68     		ldr	r3, [r7, #8]
 2094 0064 DB69     		ldr	r3, [r3, #28]
 2095 0066 9B6C     		ldr	r3, [r3, #72]
 2096 0068 002B     		cmp	r3, #0
 2097 006a 0ED0     		beq	.L114
 2098              		.loc 1 2018 0 is_stmt 0 discriminator 1
 2099 006c BB68     		ldr	r3, [r7, #8]
 2100 006e DB69     		ldr	r3, [r3, #28]
 2101 0070 9A6C     		ldr	r2, [r3, #72]
 2102 0072 013A     		sub	r2, r2, #1
 2103 0074 9A64     		str	r2, [r3, #72]
 2104 0076 9B6C     		ldr	r3, [r3, #72]
 2105 0078 002B     		cmp	r3, #0
 2106 007a 06D1     		bne	.L114
 2107              		.loc 1 2018 0 discriminator 2
 2108 007c BB68     		ldr	r3, [r7, #8]
 2109 007e 1B8B     		ldrh	r3, [r3, #24]
 2110 0080 002B     		cmp	r3, #0
 2111 0082 01D0     		beq	.L115
 2112              		.loc 1 2018 0 discriminator 3
 2113              	@ 2018 "../MQXLITE/kernel/task.c" 1
 2114 0084 62B6     		cpsie i
 2115              	@ 0 "" 2
 2116              		.code	16
 2117 0086 00E0     		b	.L114
 2118              	.L115:
 2119              		.loc 1 2018 0 discriminator 4
 2120              	@ 2018 "../MQXLITE/kernel/task.c" 1
 2121 0088 62B6     		cpsie i
 2122              	@ 0 "" 2
 2123              		.code	16
 2124              	.L114:
2019:../MQXLITE/kernel/task.c **** 
2020:../MQXLITE/kernel/task.c ****     _CHECK_RUN_SCHEDULER(); /* Let higher priority task run */
 2125              		.loc 1 2020 0 is_stmt 1
 2126 008a FFF7FEFF 		bl	_sched_check_scheduler_internal
 2127              	.L109:
2021:../MQXLITE/kernel/task.c **** }
 2128              		.loc 1 2021 0
 2129 008e BD46     		mov	sp, r7
 2130 0090 04B0     		add	sp, sp, #16
 2131              		@ sp needed for prologue
 2132 0092 80BD     		pop	{r7, pc}
 2133              	.L117:
 2134              		.align	2
 2135              	.L116:
 2136 0094 00000000 		.word	_mqx_kernel_data
 2137              		.cfi_endproc
 2138              	.LFE22:
 2140              		.section	.text._task_restart_func,"ax",%progbits
 2141              		.align	2
 2142              		.code	16
 2143              		.thumb_func
 2145              	_task_restart_func:
 2146              	.LFB23:
2022:../MQXLITE/kernel/task.c **** 
2023:../MQXLITE/kernel/task.c **** #if MQX_ENABLE_USER_MODE
2024:../MQXLITE/kernel/task.c **** 
2025:../MQXLITE/kernel/task.c **** /*!
2026:../MQXLITE/kernel/task.c ****  * \brief Makes the task ready to run by putting it in its ready queue.
2027:../MQXLITE/kernel/task.c ****  *
2028:../MQXLITE/kernel/task.c ****  * This function is an equivalent to the _task_ready() API call but it can be
2029:../MQXLITE/kernel/task.c ****  * executed from within the User task or other code running in the CPU User mode.
2030:../MQXLITE/kernel/task.c ****  * Parameters passed to this function by pointer are required to meet the memory
2031:../MQXLITE/kernel/task.c ****  * protection requirements as described in the parameter list below.
2032:../MQXLITE/kernel/task.c ****  *
2033:../MQXLITE/kernel/task.c ****  * \param[in] td Pointer to the task descriptor of the task (on this processor)
2034:../MQXLITE/kernel/task.c ****  * to be made ready.
2035:../MQXLITE/kernel/task.c ****  *
2036:../MQXLITE/kernel/task.c ****  * \warning If the new ready task has higher priority than the calling task,
2037:../MQXLITE/kernel/task.c ****  * MQX makes the new ready task active.
2038:../MQXLITE/kernel/task.c ****  * \warning Might set one of the following task error codes:
2039:../MQXLITE/kernel/task.c ****  * \n - MQX_INVALID_TASK_ID (Task_id is not valid for this processor.)
2040:../MQXLITE/kernel/task.c ****  * \n - MQX_INVALID_TASK_STATE (Task is already in its ready queue.)
2041:../MQXLITE/kernel/task.c ****  *
2042:../MQXLITE/kernel/task.c ****  * \see _task_ready
2043:../MQXLITE/kernel/task.c ****  */
2044:../MQXLITE/kernel/task.c **** void _usr_task_ready
2045:../MQXLITE/kernel/task.c **** (
2046:../MQXLITE/kernel/task.c ****     pointer td
2047:../MQXLITE/kernel/task.c **** )
2048:../MQXLITE/kernel/task.c **** {
2049:../MQXLITE/kernel/task.c ****     MQX_API_CALL_PARAMS params = {(uint_32)td, 0, 0, 0, 0};
2050:../MQXLITE/kernel/task.c ****     _mqx_api_call(MQX_API_TASK_READY, &params);
2051:../MQXLITE/kernel/task.c **** }
2052:../MQXLITE/kernel/task.c **** 
2053:../MQXLITE/kernel/task.c **** #endif /* MQX_ENABLE_USER_MODE */
2054:../MQXLITE/kernel/task.c **** 
2055:../MQXLITE/kernel/task.c **** #if MQX_TD_HAS_TASK_TEMPLATE_PTR
2056:../MQXLITE/kernel/task.c **** 
2057:../MQXLITE/kernel/task.c **** /*!
2058:../MQXLITE/kernel/task.c ****  * \brief Restart the specified task.
2059:../MQXLITE/kernel/task.c ****  *
2060:../MQXLITE/kernel/task.c ****  * Restart the task specified by the given task_id (the victim).
2061:../MQXLITE/kernel/task.c ****  * \n All of the victim's resources are released, specifically all queues are
2062:../MQXLITE/kernel/task.c ****  * closed and all memory is freed.
2063:../MQXLITE/kernel/task.c ****  * \n Component cleanup functions are called to free any component resources
2064:../MQXLITE/kernel/task.c ****  * owned by this task.
2065:../MQXLITE/kernel/task.c ****  *
2066:../MQXLITE/kernel/task.c ****  * \param[in] task_id   Task ID of the task to restart.
2067:../MQXLITE/kernel/task.c ****  * \param[in] param_ptr One of the following:
2068:../MQXLITE/kernel/task.c ****  * \n - Pointer to a new task creation parameter.
2069:../MQXLITE/kernel/task.c ****  * \n - NULL (victim's creation parameter used).
2070:../MQXLITE/kernel/task.c ****  * \param[in] blocked   Whether the task should be restarted in the blocked state or not.
2071:../MQXLITE/kernel/task.c ****  *
2072:../MQXLITE/kernel/task.c ****  * \return MQX_OK
2073:../MQXLITE/kernel/task.c ****  * \return MQX_CANNOT_CALL_FUNCTION_FROM_ISR (Function cannot be called from an ISR.)
2074:../MQXLITE/kernel/task.c ****  * \return MQX_INVALID_TASK_ID (Task_id is invalid.)
2075:../MQXLITE/kernel/task.c ****  * \return MQX_OUT_OF_MEMORY (Not enough memory to rebuild stack.)
2076:../MQXLITE/kernel/task.c ****  *
2077:../MQXLITE/kernel/task.c ****  * \warning Cannot be called from an ISR.
2078:../MQXLITE/kernel/task.c ****  *
2079:../MQXLITE/kernel/task.c ****  * \see _task_create
2080:../MQXLITE/kernel/task.c ****  * \see _task_create_blocked
2081:../MQXLITE/kernel/task.c ****  * \see _task_create_at
2082:../MQXLITE/kernel/task.c ****  */
2083:../MQXLITE/kernel/task.c **** static _mqx_uint _task_restart_func
2084:../MQXLITE/kernel/task.c **** (
2085:../MQXLITE/kernel/task.c ****     _task_id    task_id,
2086:../MQXLITE/kernel/task.c ****     uint_32_ptr param_ptr,
2087:../MQXLITE/kernel/task.c ****     boolean     blocked
2088:../MQXLITE/kernel/task.c **** )
2089:../MQXLITE/kernel/task.c **** { /* Body */
 2147              		.loc 1 2089 0
 2148              		.cfi_startproc
 2149 0000 90B5     		push	{r4, r7, lr}
 2150              	.LCFI69:
 2151              		.cfi_def_cfa_offset 12
 2152              		.cfi_offset 4, -12
 2153              		.cfi_offset 7, -8
 2154              		.cfi_offset 14, -4
 2155 0002 9DB0     		sub	sp, sp, #116
 2156              	.LCFI70:
 2157              		.cfi_def_cfa_offset 128
 2158 0004 02AF     		add	r7, sp, #8
 2159              	.LCFI71:
 2160              		.cfi_def_cfa 7, 120
 2161 0006 F860     		str	r0, [r7, #12]
 2162 0008 B960     		str	r1, [r7, #8]
 2163 000a 7A60     		str	r2, [r7, #4]
2090:../MQXLITE/kernel/task.c ****     PSP_STACK_START_STRUCT_PTR  stack_start_ptr;
2091:../MQXLITE/kernel/task.c ****     KERNEL_DATA_STRUCT_PTR      kernel_data;
2092:../MQXLITE/kernel/task.c ****     TASK_TEMPLATE_STRUCT_PTR    template_ptr;
2093:../MQXLITE/kernel/task.c ****     TD_STRUCT_PTR               victim_ptr;
2094:../MQXLITE/kernel/task.c ****     TD_STRUCT_PTR               td_ptr;
2095:../MQXLITE/kernel/task.c ****     READY_Q_STRUCT_PTR          ready_q_ptr;
2096:../MQXLITE/kernel/task.c ****     char_ptr                    stack_ptr;
2097:../MQXLITE/kernel/task.c ****     uint_32                     create_param;
2098:../MQXLITE/kernel/task.c ****     _processor_number           processor;
2099:../MQXLITE/kernel/task.c ****     _mem_size                   stack_size;
2100:../MQXLITE/kernel/task.c **** 
2101:../MQXLITE/kernel/task.c ****     _GET_KERNEL_DATA(kernel_data);
 2164              		.loc 1 2101 0
 2165 000c AE4B     		ldr	r3, .L143
 2166 000e 1B68     		ldr	r3, [r3]
 2167 0010 7B65     		str	r3, [r7, #84]
2102:../MQXLITE/kernel/task.c ****     _KLOGE2(KLOG_task_restart, task_id);
2103:../MQXLITE/kernel/task.c **** 
2104:../MQXLITE/kernel/task.c **** #if MQX_CHECK_ERRORS
2105:../MQXLITE/kernel/task.c ****     if (kernel_data->IN_ISR)
 2168              		.loc 1 2105 0
 2169 0012 7B6D     		ldr	r3, [r7, #84]
 2170 0014 1B8B     		ldrh	r3, [r3, #24]
 2171 0016 002B     		cmp	r3, #0
 2172 0018 01D0     		beq	.L119
2106:../MQXLITE/kernel/task.c ****     {
2107:../MQXLITE/kernel/task.c ****         /* Cannot be called from an ISR */
2108:../MQXLITE/kernel/task.c ****         _KLOGX2(KLOG_task_restart, MQX_CANNOT_CALL_FUNCTION_FROM_ISR);
2109:../MQXLITE/kernel/task.c ****         return(MQX_CANNOT_CALL_FUNCTION_FROM_ISR);
 2173              		.loc 1 2109 0
 2174 001a 0D23     		mov	r3, #13
 2175 001c 4FE1     		b	.L120
 2176              	.L119:
2110:../MQXLITE/kernel/task.c ****     } /* Endif */
2111:../MQXLITE/kernel/task.c **** #endif
2112:../MQXLITE/kernel/task.c **** 
2113:../MQXLITE/kernel/task.c ****     if (task_id != MQX_NULL_TASK_ID)
 2177              		.loc 1 2113 0
 2178 001e FB68     		ldr	r3, [r7, #12]
 2179 0020 002B     		cmp	r3, #0
 2180 0022 10D0     		beq	.L121
2114:../MQXLITE/kernel/task.c ****     {
2115:../MQXLITE/kernel/task.c ****         processor = PROC_NUMBER_FROM_TASKID(task_id);
 2181              		.loc 1 2115 0
 2182 0024 FB68     		ldr	r3, [r7, #12]
 2183 0026 1A0C     		lsr	r2, r3, #16
 2184 0028 3B1C     		mov	r3, r7
 2185 002a 5233     		add	r3, r3, #82
 2186 002c 1A80     		strh	r2, [r3]
2116:../MQXLITE/kernel/task.c ****         if (processor != (_processor_number)kernel_data->INIT.PROCESSOR_NUMBER )
 2187              		.loc 1 2116 0
 2188 002e 7A6D     		ldr	r2, [r7, #84]
 2189 0030 A823     		mov	r3, #168
 2190 0032 5B00     		lsl	r3, r3, #1
 2191 0034 D358     		ldr	r3, [r2, r3]
 2192 0036 9BB2     		uxth	r3, r3
 2193 0038 3A1C     		mov	r2, r7
 2194 003a 5232     		add	r2, r2, #82
 2195 003c 1288     		ldrh	r2, [r2]
 2196 003e 9A42     		cmp	r2, r3
 2197 0040 01D0     		beq	.L121
2117:../MQXLITE/kernel/task.c ****         {
2118:../MQXLITE/kernel/task.c **** #if MQX_IS_MULTI_PROCESSOR
2119:../MQXLITE/kernel/task.c ****             if ( kernel_data->IPC != NULL )
2120:../MQXLITE/kernel/task.c ****             {
2121:../MQXLITE/kernel/task.c ****                 _KLOGX2(KLOG_task_restart, MQX_OK);
2122:../MQXLITE/kernel/task.c ****                 return( (*kernel_data->IPC)(FALSE, processor,
2123:../MQXLITE/kernel/task.c ****                                 KERNEL_MESSAGES, IPC_TASK_RESTART, 3, (_mqx_uint)task_id,
2124:../MQXLITE/kernel/task.c ****                                 (_mqx_uint)param_ptr, (_mqx_uint)blocked));
2125:../MQXLITE/kernel/task.c ****             }
2126:../MQXLITE/kernel/task.c ****             else
2127:../MQXLITE/kernel/task.c ****             {
2128:../MQXLITE/kernel/task.c **** #endif
2129:../MQXLITE/kernel/task.c ****                 _KLOGX2(KLOG_task_restart, MQX_INVALID_TASK_ID);
2130:../MQXLITE/kernel/task.c ****                 return(MQX_INVALID_TASK_ID);
 2198              		.loc 1 2130 0
 2199 0042 1223     		mov	r3, #18
 2200 0044 3BE1     		b	.L120
 2201              	.L121:
2131:../MQXLITE/kernel/task.c **** #if MQX_IS_MULTI_PROCESSOR
2132:../MQXLITE/kernel/task.c ****             } /* Endif */
2133:../MQXLITE/kernel/task.c **** #endif
2134:../MQXLITE/kernel/task.c ****         }/* Endif */
2135:../MQXLITE/kernel/task.c ****     }/* Endif */
2136:../MQXLITE/kernel/task.c **** 
2137:../MQXLITE/kernel/task.c ****     victim_ptr = (TD_STRUCT_PTR)_task_get_td(task_id);
 2202              		.loc 1 2137 0
 2203 0046 FB68     		ldr	r3, [r7, #12]
 2204 0048 181C     		mov	r0, r3
 2205 004a FFF7FEFF 		bl	_task_get_td
 2206 004e 031C     		mov	r3, r0
 2207 0050 FB64     		str	r3, [r7, #76]
2138:../MQXLITE/kernel/task.c **** 
2139:../MQXLITE/kernel/task.c **** #if MQX_CHECK_ERRORS
2140:../MQXLITE/kernel/task.c ****     if (victim_ptr == NULL)
 2208              		.loc 1 2140 0
 2209 0052 FB6C     		ldr	r3, [r7, #76]
 2210 0054 002B     		cmp	r3, #0
 2211 0056 01D1     		bne	.L122
2141:../MQXLITE/kernel/task.c ****     {
2142:../MQXLITE/kernel/task.c ****         _KLOGX2(KLOG_task_restart, MQX_INVALID_TASK_ID);
2143:../MQXLITE/kernel/task.c ****         return(MQX_INVALID_TASK_ID);
 2212              		.loc 1 2143 0
 2213 0058 1223     		mov	r3, #18
 2214 005a 30E1     		b	.L120
 2215              	.L122:
2144:../MQXLITE/kernel/task.c ****     } /* Endif */
2145:../MQXLITE/kernel/task.c **** 
2146:../MQXLITE/kernel/task.c ****     if (victim_ptr == SYSTEM_TD_PTR(kernel_data))
 2216              		.loc 1 2146 0
 2217 005c 7B6D     		ldr	r3, [r7, #84]
 2218 005e 1A1C     		mov	r2, r3
 2219 0060 4832     		add	r2, r2, #72
 2220 0062 FB6C     		ldr	r3, [r7, #76]
 2221 0064 9A42     		cmp	r2, r3
 2222 0066 01D1     		bne	.L123
2147:../MQXLITE/kernel/task.c ****     {
2148:../MQXLITE/kernel/task.c ****         _KLOGX2(KLOG_task_restart, MQX_INVALID_TASK_ID);
2149:../MQXLITE/kernel/task.c ****         return(MQX_INVALID_TASK_ID);
 2223              		.loc 1 2149 0
 2224 0068 1223     		mov	r3, #18
 2225 006a 28E1     		b	.L120
 2226              	.L123:
2150:../MQXLITE/kernel/task.c ****     } /* Endif */
2151:../MQXLITE/kernel/task.c **** #endif
2152:../MQXLITE/kernel/task.c **** 
2153:../MQXLITE/kernel/task.c ****     /* First, serialize task creation/destruction/restart */
2154:../MQXLITE/kernel/task.c ****     _lwsem_wait((LWSEM_STRUCT_PTR)&kernel_data->TASK_CREATE_LWSEM);
 2227              		.loc 1 2154 0
 2228 006c 7B6D     		ldr	r3, [r7, #84]
 2229 006e F433     		add	r3, r3, #244
 2230 0070 181C     		mov	r0, r3
 2231 0072 FFF7FEFF 		bl	_lwsem_wait
2155:../MQXLITE/kernel/task.c **** 
2156:../MQXLITE/kernel/task.c ****     _int_disable();
 2232              		.loc 1 2156 0
 2233 0076 FFF7FEFF 		bl	_int_disable
2157:../MQXLITE/kernel/task.c ****     /* remove the victim from any queues it may be in. */
2158:../MQXLITE/kernel/task.c ****     if (victim_ptr->STATE == READY)
 2234              		.loc 1 2158 0
 2235 007a FB6C     		ldr	r3, [r7, #76]
 2236 007c 9B68     		ldr	r3, [r3, #8]
 2237 007e 022B     		cmp	r3, #2
 2238 0080 11D1     		bne	.L124
2159:../MQXLITE/kernel/task.c ****     {
2160:../MQXLITE/kernel/task.c ****         if (victim_ptr != kernel_data->ACTIVE_PTR)
 2239              		.loc 1 2160 0
 2240 0082 7B6D     		ldr	r3, [r7, #84]
 2241 0084 DA69     		ldr	r2, [r3, #28]
 2242 0086 FB6C     		ldr	r3, [r7, #76]
 2243 0088 9A42     		cmp	r2, r3
 2244 008a 50D0     		beq	.L125
 2245              	.LBB13:
2161:../MQXLITE/kernel/task.c ****         {
2162:../MQXLITE/kernel/task.c ****             /* Remove other task from ready queue */
2163:../MQXLITE/kernel/task.c ****             _QUEUE_UNLINK(victim_ptr);
 2246              		.loc 1 2163 0
 2247 008c FB6C     		ldr	r3, [r7, #76]
 2248 008e 5B68     		ldr	r3, [r3, #4]
 2249 0090 BB64     		str	r3, [r7, #72]
 2250 0092 FB6C     		ldr	r3, [r7, #76]
 2251 0094 1B68     		ldr	r3, [r3]
 2252 0096 7B64     		str	r3, [r7, #68]
 2253 0098 BB6C     		ldr	r3, [r7, #72]
 2254 009a 7A6C     		ldr	r2, [r7, #68]
 2255 009c 1A60     		str	r2, [r3]
 2256 009e 7B6C     		ldr	r3, [r7, #68]
 2257 00a0 BA6C     		ldr	r2, [r7, #72]
 2258 00a2 5A60     		str	r2, [r3, #4]
 2259 00a4 43E0     		b	.L125
 2260              	.L124:
 2261              	.LBE13:
2164:../MQXLITE/kernel/task.c ****         } /* Endif */
2165:../MQXLITE/kernel/task.c ****     }
2166:../MQXLITE/kernel/task.c ****     else if (victim_ptr->STATE & IS_ON_TIMEOUT_Q)
 2262              		.loc 1 2166 0
 2263 00a6 FB6C     		ldr	r3, [r7, #76]
 2264 00a8 9A68     		ldr	r2, [r3, #8]
 2265 00aa 8023     		mov	r3, #128
 2266 00ac 5B00     		lsl	r3, r3, #1
 2267 00ae 1340     		and	r3, r2
 2268 00b0 25D0     		beq	.L126
2167:../MQXLITE/kernel/task.c ****     {
2168:../MQXLITE/kernel/task.c ****         /* Remove from time queue */
2169:../MQXLITE/kernel/task.c ****         _TIME_DEQUEUE(victim_ptr, kernel_data);
 2269              		.loc 1 2169 0
 2270 00b2 FB6C     		ldr	r3, [r7, #76]
 2271 00b4 9A68     		ldr	r2, [r3, #8]
 2272 00b6 8023     		mov	r3, #128
 2273 00b8 5B00     		lsl	r3, r3, #1
 2274 00ba 1340     		and	r3, r2
 2275 00bc 37D0     		beq	.L125
 2276              	.LBB14:
 2277              		.loc 1 2169 0 is_stmt 0 discriminator 1
 2278 00be FB6C     		ldr	r3, [r7, #76]
 2279 00c0 5B68     		ldr	r3, [r3, #4]
 2280 00c2 3B64     		str	r3, [r7, #64]
 2281 00c4 FB6C     		ldr	r3, [r7, #76]
 2282 00c6 1B68     		ldr	r3, [r3]
 2283 00c8 FB63     		str	r3, [r7, #60]
 2284 00ca 3B6C     		ldr	r3, [r7, #64]
 2285 00cc FA6B     		ldr	r2, [r7, #60]
 2286 00ce 1A60     		str	r2, [r3]
 2287 00d0 FB6B     		ldr	r3, [r7, #60]
 2288 00d2 3A6C     		ldr	r2, [r7, #64]
 2289 00d4 5A60     		str	r2, [r3, #4]
 2290              	.LBE14:
 2291 00d6 7B6D     		ldr	r3, [r7, #84]
 2292 00d8 2933     		add	r3, r3, #41
 2293 00da FF33     		add	r3, r3, #255
 2294 00dc 1A89     		ldrh	r2, [r3, #8]
 2295 00de 013A     		sub	r2, r2, #1
 2296 00e0 92B2     		uxth	r2, r2
 2297 00e2 1A81     		strh	r2, [r3, #8]
 2298 00e4 FB6C     		ldr	r3, [r7, #76]
 2299 00e6 9A68     		ldr	r2, [r3, #8]
 2300 00e8 784B     		ldr	r3, .L143+4
 2301 00ea 1A40     		and	r2, r3
 2302 00ec FB6C     		ldr	r3, [r7, #76]
 2303 00ee 9A60     		str	r2, [r3, #8]
 2304 00f0 FB6C     		ldr	r3, [r7, #76]
 2305 00f2 9B68     		ldr	r3, [r3, #8]
 2306 00f4 0322     		mov	r2, #3
 2307 00f6 1A43     		orr	r2, r3
 2308 00f8 FB6C     		ldr	r3, [r7, #76]
 2309 00fa 9A60     		str	r2, [r3, #8]
 2310 00fc 17E0     		b	.L125
 2311              	.L126:
2170:../MQXLITE/kernel/task.c ****     }
2171:../MQXLITE/kernel/task.c ****     else if (victim_ptr->STATE & TD_IS_ON_QUEUE)
 2312              		.loc 1 2171 0 is_stmt 1
 2313 00fe FB6C     		ldr	r3, [r7, #76]
 2314 0100 9A68     		ldr	r2, [r3, #8]
 2315 0102 8023     		mov	r3, #128
 2316 0104 9B00     		lsl	r3, r3, #2
 2317 0106 1340     		and	r3, r2
 2318 0108 11D0     		beq	.L125
 2319              	.LBB15:
2172:../MQXLITE/kernel/task.c ****     {
2173:../MQXLITE/kernel/task.c ****         /* Remove from queue, where suspended
2174:../MQXLITE/kernel/task.c ****          * eg, MUTEX_BLOCKED, IO_BLOCKED, TASKQ_BLOCKED
2175:../MQXLITE/kernel/task.c ****          */
2176:../MQXLITE/kernel/task.c ****         _QUEUE_REMOVE(victim_ptr->INFO, victim_ptr);
 2320              		.loc 1 2176 0
 2321 010a FB6C     		ldr	r3, [r7, #76]
 2322 010c 5B68     		ldr	r3, [r3, #4]
 2323 010e BB63     		str	r3, [r7, #56]
 2324 0110 FB6C     		ldr	r3, [r7, #76]
 2325 0112 1B68     		ldr	r3, [r3]
 2326 0114 7B63     		str	r3, [r7, #52]
 2327 0116 BB6B     		ldr	r3, [r7, #56]
 2328 0118 7A6B     		ldr	r2, [r7, #52]
 2329 011a 1A60     		str	r2, [r3]
 2330 011c 7B6B     		ldr	r3, [r7, #52]
 2331 011e BA6B     		ldr	r2, [r7, #56]
 2332 0120 5A60     		str	r2, [r3, #4]
 2333              	.LBE15:
 2334 0122 FB6C     		ldr	r3, [r7, #76]
 2335 0124 DB6A     		ldr	r3, [r3, #44]
 2336 0126 1A89     		ldrh	r2, [r3, #8]
 2337 0128 013A     		sub	r2, r2, #1
 2338 012a 92B2     		uxth	r2, r2
 2339 012c 1A81     		strh	r2, [r3, #8]
 2340              	.L125:
2177:../MQXLITE/kernel/task.c ****     } /* Endif */
2178:../MQXLITE/kernel/task.c **** 
2179:../MQXLITE/kernel/task.c ****     if (victim_ptr->STATE & TD_IS_ON_AUX_QUEUE)
 2341              		.loc 1 2179 0
 2342 012e FB6C     		ldr	r3, [r7, #76]
 2343 0130 9A68     		ldr	r2, [r3, #8]
 2344 0132 8023     		mov	r3, #128
 2345 0134 DB00     		lsl	r3, r3, #3
 2346 0136 1340     		and	r3, r2
 2347 0138 13D0     		beq	.L127
 2348              	.LBB16:
2180:../MQXLITE/kernel/task.c ****     {
2181:../MQXLITE/kernel/task.c ****         /*
2182:../MQXLITE/kernel/task.c ****          * Remove from queue, where suspended
2183:../MQXLITE/kernel/task.c ****          * eg, LWSEM_BLOCKED
2184:../MQXLITE/kernel/task.c ****          * (uses AUX_QUEUE field)
2185:../MQXLITE/kernel/task.c ****          */
2186:../MQXLITE/kernel/task.c ****         _QUEUE_REMOVE(victim_ptr->INFO, &victim_ptr->AUX_QUEUE);
 2349              		.loc 1 2186 0
 2350 013a FB6C     		ldr	r3, [r7, #76]
 2351 013c 3033     		add	r3, r3, #48
 2352 013e 5B68     		ldr	r3, [r3, #4]
 2353 0140 3B63     		str	r3, [r7, #48]
 2354 0142 FB6C     		ldr	r3, [r7, #76]
 2355 0144 3033     		add	r3, r3, #48
 2356 0146 1B68     		ldr	r3, [r3]
 2357 0148 FB62     		str	r3, [r7, #44]
 2358 014a 3B6B     		ldr	r3, [r7, #48]
 2359 014c FA6A     		ldr	r2, [r7, #44]
 2360 014e 1A60     		str	r2, [r3]
 2361 0150 FB6A     		ldr	r3, [r7, #44]
 2362 0152 3A6B     		ldr	r2, [r7, #48]
 2363 0154 5A60     		str	r2, [r3, #4]
 2364              	.LBE16:
 2365 0156 FB6C     		ldr	r3, [r7, #76]
 2366 0158 DB6A     		ldr	r3, [r3, #44]
 2367 015a 1A89     		ldrh	r2, [r3, #8]
 2368 015c 013A     		sub	r2, r2, #1
 2369 015e 92B2     		uxth	r2, r2
 2370 0160 1A81     		strh	r2, [r3, #8]
 2371              	.L127:
2187:../MQXLITE/kernel/task.c ****     } /* Endif */
2188:../MQXLITE/kernel/task.c **** 
2189:../MQXLITE/kernel/task.c ****     victim_ptr->STATE   = DYING;
 2372              		.loc 1 2189 0
 2373 0162 FB6C     		ldr	r3, [r7, #76]
 2374 0164 0922     		mov	r2, #9
 2375 0166 9A60     		str	r2, [r3, #8]
2190:../MQXLITE/kernel/task.c **** 
2191:../MQXLITE/kernel/task.c **** #if MQXCFG_ENABLE_FP && PSP_HAS_FPU
2192:../MQXLITE/kernel/task.c ****     /* Stop Floating point context monitoring */
2193:../MQXLITE/kernel/task.c ****     if (kernel_data->FP_ACTIVE_PTR == victim_ptr)
2194:../MQXLITE/kernel/task.c ****     {
2195:../MQXLITE/kernel/task.c ****         kernel_data->FP_ACTIVE_PTR = NULL;
2196:../MQXLITE/kernel/task.c ****     }/* Endif */
2197:../MQXLITE/kernel/task.c **** #endif
2198:../MQXLITE/kernel/task.c **** 
2199:../MQXLITE/kernel/task.c ****     _int_enable();
 2376              		.loc 1 2199 0
 2377 0168 FFF7FEFF 		bl	_int_enable
 2378              	.LBB17:
2200:../MQXLITE/kernel/task.c **** 
2201:../MQXLITE/kernel/task.c **** #if MQX_COMPONENT_DESTRUCTION
2202:../MQXLITE/kernel/task.c ****     {
2203:../MQXLITE/kernel/task.c ****         _mqx_uint   i;
2204:../MQXLITE/kernel/task.c ****         for (i = 0; i < MAX_KERNEL_COMPONENTS; ++i)
 2379              		.loc 1 2204 0
 2380 016c 0023     		mov	r3, #0
 2381 016e BB65     		str	r3, [r7, #88]
 2382 0170 11E0     		b	.L128
 2383              	.L130:
2205:../MQXLITE/kernel/task.c ****         {
2206:../MQXLITE/kernel/task.c ****             if (kernel_data->COMPONENT_CLEANUP[i] != NULL)
 2384              		.loc 1 2206 0
 2385 0172 7B6D     		ldr	r3, [r7, #84]
 2386 0174 BA6D     		ldr	r2, [r7, #88]
 2387 0176 7432     		add	r2, r2, #116
 2388 0178 9200     		lsl	r2, r2, #2
 2389 017a D358     		ldr	r3, [r2, r3]
 2390 017c 002B     		cmp	r3, #0
 2391 017e 07D0     		beq	.L129
2207:../MQXLITE/kernel/task.c ****             {
2208:../MQXLITE/kernel/task.c ****                 (*kernel_data->COMPONENT_CLEANUP[i])(victim_ptr);
 2392              		.loc 1 2208 0
 2393 0180 7B6D     		ldr	r3, [r7, #84]
 2394 0182 BA6D     		ldr	r2, [r7, #88]
 2395 0184 7432     		add	r2, r2, #116
 2396 0186 9200     		lsl	r2, r2, #2
 2397 0188 D358     		ldr	r3, [r2, r3]
 2398 018a FA6C     		ldr	r2, [r7, #76]
 2399 018c 101C     		mov	r0, r2
 2400 018e 9847     		blx	r3
 2401              	.L129:
2204:../MQXLITE/kernel/task.c ****         for (i = 0; i < MAX_KERNEL_COMPONENTS; ++i)
 2402              		.loc 1 2204 0
 2403 0190 BB6D     		ldr	r3, [r7, #88]
 2404 0192 0133     		add	r3, r3, #1
 2405 0194 BB65     		str	r3, [r7, #88]
 2406              	.L128:
2204:../MQXLITE/kernel/task.c ****         for (i = 0; i < MAX_KERNEL_COMPONENTS; ++i)
 2407              		.loc 1 2204 0 is_stmt 0 discriminator 1
 2408 0196 BB6D     		ldr	r3, [r7, #88]
 2409 0198 0F2B     		cmp	r3, #15
 2410 019a EAD9     		bls	.L130
 2411              	.LBE17:
2209:../MQXLITE/kernel/task.c ****             } /* Endif */
2210:../MQXLITE/kernel/task.c ****         } /* Endfor */
2211:../MQXLITE/kernel/task.c ****     }
2212:../MQXLITE/kernel/task.c **** #endif
2213:../MQXLITE/kernel/task.c **** 
2214:../MQXLITE/kernel/task.c ****     td_ptr = kernel_data->ACTIVE_PTR;
 2412              		.loc 1 2214 0 is_stmt 1
 2413 019c 7B6D     		ldr	r3, [r7, #84]
 2414 019e DB69     		ldr	r3, [r3, #28]
 2415 01a0 BB62     		str	r3, [r7, #40]
2215:../MQXLITE/kernel/task.c **** #if !MQX_LITE_VERSION_NUMBER
2216:../MQXLITE/kernel/task.c ****     {
2217:../MQXLITE/kernel/task.c ****         pointer                     block_ptr;
2218:../MQXLITE/kernel/task.c ****         block_ptr = _mem_get_next_block_internal(victim_ptr, NULL);
2219:../MQXLITE/kernel/task.c ****         while (block_ptr != NULL)
2220:../MQXLITE/kernel/task.c ****         {
2221:../MQXLITE/kernel/task.c ****             if (block_ptr           == victim_ptr ||
2222:../MQXLITE/kernel/task.c ****                 MEM_TYPE_TD         == GET_MEMBLOCK_TYPE(block_ptr) ||
2223:../MQXLITE/kernel/task.c ****                 MEM_TYPE_TASK_STACK == GET_MEMBLOCK_TYPE(block_ptr))
2224:../MQXLITE/kernel/task.c ****             {
2225:../MQXLITE/kernel/task.c **** 
2226:../MQXLITE/kernel/task.c ****                 block_ptr = _mem_get_next_block_internal (victim_ptr, block_ptr);
2227:../MQXLITE/kernel/task.c ****                 if (block_ptr == victim_ptr)
2228:../MQXLITE/kernel/task.c ****                     break;
2229:../MQXLITE/kernel/task.c ****             }
2230:../MQXLITE/kernel/task.c ****             else
2231:../MQXLITE/kernel/task.c ****             {
2232:../MQXLITE/kernel/task.c ****                 _mem_transfer_td_internal(block_ptr, victim_ptr, td_ptr);
2233:../MQXLITE/kernel/task.c ****                 _mem_free(block_ptr);
2234:../MQXLITE/kernel/task.c ****                 block_ptr = _mem_get_next_block_internal (victim_ptr, NULL);
2235:../MQXLITE/kernel/task.c ****             }
2236:../MQXLITE/kernel/task.c ****         }
2237:../MQXLITE/kernel/task.c ****     }
2238:../MQXLITE/kernel/task.c **** #endif /* MQX_LITE_VERSION_NUMBER */
2239:../MQXLITE/kernel/task.c **** 
2240:../MQXLITE/kernel/task.c ****     /* Free up create/destroy/restart for other tasks */
2241:../MQXLITE/kernel/task.c ****     _lwsem_post((LWSEM_STRUCT_PTR)&kernel_data->TASK_CREATE_LWSEM);
 2416              		.loc 1 2241 0
 2417 01a2 7B6D     		ldr	r3, [r7, #84]
 2418 01a4 F433     		add	r3, r3, #244
 2419 01a6 181C     		mov	r0, r3
 2420 01a8 FFF7FEFF 		bl	_lwsem_post
2242:../MQXLITE/kernel/task.c **** 
2243:../MQXLITE/kernel/task.c ****     template_ptr    = victim_ptr->TASK_TEMPLATE_PTR;
 2421              		.loc 1 2243 0
 2422 01ac FB6C     		ldr	r3, [r7, #76]
 2423 01ae 9B6D     		ldr	r3, [r3, #88]
 2424 01b0 7B62     		str	r3, [r7, #36]
2244:../MQXLITE/kernel/task.c ****     stack_start_ptr = _psp_get_stack_start(victim_ptr);
 2425              		.loc 1 2244 0
 2426 01b2 FB6C     		ldr	r3, [r7, #76]
 2427 01b4 181C     		mov	r0, r3
 2428 01b6 FFF7FEFF 		bl	_psp_get_stack_start
 2429 01ba 031C     		mov	r3, r0
 2430 01bc 3B62     		str	r3, [r7, #32]
2245:../MQXLITE/kernel/task.c ****     if (param_ptr == NULL)
 2431              		.loc 1 2245 0
 2432 01be BB68     		ldr	r3, [r7, #8]
 2433 01c0 002B     		cmp	r3, #0
 2434 01c2 03D1     		bne	.L131
2246:../MQXLITE/kernel/task.c ****     {
2247:../MQXLITE/kernel/task.c ****         create_param = stack_start_ptr->PARAMETER;
 2435              		.loc 1 2247 0
 2436 01c4 3B6A     		ldr	r3, [r7, #32]
 2437 01c6 DB6C     		ldr	r3, [r3, #76]
 2438 01c8 3B66     		str	r3, [r7, #96]
 2439 01ca 02E0     		b	.L132
 2440              	.L131:
2248:../MQXLITE/kernel/task.c ****     }
2249:../MQXLITE/kernel/task.c ****     else
2250:../MQXLITE/kernel/task.c ****     {
2251:../MQXLITE/kernel/task.c ****         create_param = *param_ptr;
 2441              		.loc 1 2251 0
 2442 01cc BB68     		ldr	r3, [r7, #8]
 2443 01ce 1B68     		ldr	r3, [r3]
 2444 01d0 3B66     		str	r3, [r7, #96]
 2445              	.L132:
2252:../MQXLITE/kernel/task.c ****     } /* Endif */
2253:../MQXLITE/kernel/task.c **** 
2254:../MQXLITE/kernel/task.c ****     if (victim_ptr->STACK_ALLOC_BLOCK)    {
 2446              		.loc 1 2254 0
 2447 01d2 FB6C     		ldr	r3, [r7, #76]
 2448 01d4 DB6E     		ldr	r3, [r3, #108]
 2449 01d6 002B     		cmp	r3, #0
 2450 01d8 03D0     		beq	.L133
2255:../MQXLITE/kernel/task.c ****         stack_ptr = victim_ptr->STACK_ALLOC_BLOCK;
 2451              		.loc 1 2255 0
 2452 01da FB6C     		ldr	r3, [r7, #76]
 2453 01dc DB6E     		ldr	r3, [r3, #108]
 2454 01de 7B66     		str	r3, [r7, #100]
 2455 01e0 02E0     		b	.L134
 2456              	.L133:
2256:../MQXLITE/kernel/task.c ****     }
2257:../MQXLITE/kernel/task.c ****     else    {
2258:../MQXLITE/kernel/task.c ****         stack_ptr = (char_ptr)victim_ptr + sizeof(TD_STRUCT);
 2457              		.loc 1 2258 0
 2458 01e2 FB6C     		ldr	r3, [r7, #76]
 2459 01e4 7033     		add	r3, r3, #112
 2460 01e6 7B66     		str	r3, [r7, #100]
 2461              	.L134:
2259:../MQXLITE/kernel/task.c ****     }
2260:../MQXLITE/kernel/task.c **** 
2261:../MQXLITE/kernel/task.c ****     if (stack_ptr == (pointer)template_ptr)
 2462              		.loc 1 2261 0
 2463 01e8 7A6E     		ldr	r2, [r7, #100]
 2464 01ea 7B6A     		ldr	r3, [r7, #36]
 2465 01ec 9A42     		cmp	r2, r3
 2466 01ee 02D1     		bne	.L135
2262:../MQXLITE/kernel/task.c ****     {
2263:../MQXLITE/kernel/task.c ****         /* task has been created with temporary template, copy of template is before stack in alloc
2264:../MQXLITE/kernel/task.c ****             stack_ptr +=  sizeof(TASK_TEMPLATE_STRUCT);
 2467              		.loc 1 2264 0
 2468 01f0 7B6E     		ldr	r3, [r7, #100]
 2469 01f2 1C33     		add	r3, r3, #28
 2470 01f4 7B66     		str	r3, [r7, #100]
 2471              	.L135:
2265:../MQXLITE/kernel/task.c ****     }
2266:../MQXLITE/kernel/task.c **** 
2267:../MQXLITE/kernel/task.c ****     stack_size = template_ptr->TASK_STACKSIZE;
 2472              		.loc 1 2267 0
 2473 01f6 7B6A     		ldr	r3, [r7, #36]
 2474 01f8 9B68     		ldr	r3, [r3, #8]
 2475 01fa FB65     		str	r3, [r7, #92]
2268:../MQXLITE/kernel/task.c ****     if ( stack_size <= PSP_MINSTACKSIZE  )
 2476              		.loc 1 2268 0
 2477 01fc FB6D     		ldr	r3, [r7, #92]
 2478 01fe 982B     		cmp	r3, #152
 2479 0200 01D8     		bhi	.L136
2269:../MQXLITE/kernel/task.c ****     {
2270:../MQXLITE/kernel/task.c ****         stack_size = PSP_MINSTACKSIZE;
 2480              		.loc 1 2270 0
 2481 0202 9823     		mov	r3, #152
 2482 0204 FB65     		str	r3, [r7, #92]
 2483              	.L136:
2271:../MQXLITE/kernel/task.c ****     } /* Endif */
2272:../MQXLITE/kernel/task.c **** 
2273:../MQXLITE/kernel/task.c ****     /* Make the size a multiple of the memory alignment */
2274:../MQXLITE/kernel/task.c ****     _MEMORY_ALIGN_VAL_LARGER(stack_size);
 2484              		.loc 1 2274 0
 2485 0206 FB6D     		ldr	r3, [r7, #92]
 2486 0208 0F33     		add	r3, r3, #15
 2487 020a 0F22     		mov	r2, #15
 2488 020c 9343     		bic	r3, r2
 2489 020e FB65     		str	r3, [r7, #92]
2275:../MQXLITE/kernel/task.c **** 
2276:../MQXLITE/kernel/task.c ****     ready_q_ptr = kernel_data->READY_Q_LIST - template_ptr->TASK_PRIORITY;
 2490              		.loc 1 2276 0
 2491 0210 7B6D     		ldr	r3, [r7, #84]
 2492 0212 1A6A     		ldr	r2, [r3, #32]
 2493 0214 7B6A     		ldr	r3, [r7, #36]
 2494 0216 DB68     		ldr	r3, [r3, #12]
 2495 0218 1B01     		lsl	r3, r3, #4
 2496 021a 5B42     		neg	r3, r3
 2497 021c D318     		add	r3, r2, r3
 2498 021e FB61     		str	r3, [r7, #28]
2277:../MQXLITE/kernel/task.c ****     victim_ptr->MY_QUEUE = ready_q_ptr;
 2499              		.loc 1 2277 0
 2500 0220 FB6C     		ldr	r3, [r7, #76]
 2501 0222 FA69     		ldr	r2, [r7, #28]
 2502 0224 DA61     		str	r2, [r3, #28]
2278:../MQXLITE/kernel/task.c **** #if MQX_HAS_DYNAMIC_PRIORITIES
2279:../MQXLITE/kernel/task.c ****     victim_ptr->HOME_QUEUE  = ready_q_ptr;
 2503              		.loc 1 2279 0
 2504 0226 FB6C     		ldr	r3, [r7, #76]
 2505 0228 FA69     		ldr	r2, [r7, #28]
 2506 022a 1A62     		str	r2, [r3, #32]
2280:../MQXLITE/kernel/task.c **** #endif
2281:../MQXLITE/kernel/task.c ****     victim_ptr->TASK_SR     = ready_q_ptr->ENABLE_SR;
 2507              		.loc 1 2281 0
 2508 022c FB69     		ldr	r3, [r7, #28]
 2509 022e 9A89     		ldrh	r2, [r3, #12]
 2510 0230 FB6C     		ldr	r3, [r7, #76]
 2511 0232 9A84     		strh	r2, [r3, #36]
2282:../MQXLITE/kernel/task.c ****     victim_ptr->FLAGS       = template_ptr->TASK_ATTRIBUTES;
 2512              		.loc 1 2282 0
 2513 0234 7B6A     		ldr	r3, [r7, #36]
 2514 0236 5A69     		ldr	r2, [r3, #20]
 2515 0238 FB6C     		ldr	r3, [r7, #76]
 2516 023a 9A62     		str	r2, [r3, #40]
2283:../MQXLITE/kernel/task.c **** 
2284:../MQXLITE/kernel/task.c **** #if MQX_ENABLE_USER_MODE
2285:../MQXLITE/kernel/task.c ****     if (template_ptr->TASK_ATTRIBUTES & MQX_USER_TASK)
2286:../MQXLITE/kernel/task.c ****     {
2287:../MQXLITE/kernel/task.c ****         victim_ptr->FLAGS |= TASK_USER_MODE;
2288:../MQXLITE/kernel/task.c ****     }
2289:../MQXLITE/kernel/task.c **** #endif /* MQX_ENABLE_USER_MODE */
2290:../MQXLITE/kernel/task.c **** 
2291:../MQXLITE/kernel/task.c **** #if MQX_HAS_TIME_SLICE
2292:../MQXLITE/kernel/task.c ****     /* Reset the time slice back to the default */
2293:../MQXLITE/kernel/task.c ****     if (template_ptr->DEFAULT_TIME_SLICE)
2294:../MQXLITE/kernel/task.c ****     {
2295:../MQXLITE/kernel/task.c **** #if (MQX_DEFAULT_TIME_SLICE_IN_TICKS == 0)
2296:../MQXLITE/kernel/task.c ****         uint_32 ticks;
2297:../MQXLITE/kernel/task.c **** 
2298:../MQXLITE/kernel/task.c ****         ticks = ((template_ptr->DEFAULT_TIME_SLICE * 2 *
2299:../MQXLITE/kernel/task.c ****                         kernel_data->TICKS_PER_SECOND) / 1000) / 2  /* Rounding.. */;
2300:../MQXLITE/kernel/task.c ****         PSP_ADD_TICKS_TO_TICK_STRUCT(&td_ptr->TIME_SLICE,
2301:../MQXLITE/kernel/task.c ****             ticks, &td_ptr->TIME_SLICE);
2302:../MQXLITE/kernel/task.c **** #else
2303:../MQXLITE/kernel/task.c ****         PSP_ADD_TICKS_TO_TICK_STRUCT(&victim_ptr->TIME_SLICE,
2304:../MQXLITE/kernel/task.c ****             template_ptr->DEFAULT_TIME_SLICE, &victim_ptr->TIME_SLICE);
2305:../MQXLITE/kernel/task.c **** #endif
2306:../MQXLITE/kernel/task.c ****     }
2307:../MQXLITE/kernel/task.c ****     else
2308:../MQXLITE/kernel/task.c ****     {
2309:../MQXLITE/kernel/task.c ****         victim_ptr->TIME_SLICE = kernel_data->SCHED_TIME_SLICE;
2310:../MQXLITE/kernel/task.c ****     } /* Endif */
2311:../MQXLITE/kernel/task.c ****     /* Reset scheduling policy for task */
2312:../MQXLITE/kernel/task.c ****     if (kernel_data->SCHED_POLICY == MQX_SCHED_RR)
2313:../MQXLITE/kernel/task.c ****     {
2314:../MQXLITE/kernel/task.c ****         victim_ptr->FLAGS |= MQX_TIME_SLICE_TASK;
2315:../MQXLITE/kernel/task.c ****     } /* Endif */
2316:../MQXLITE/kernel/task.c **** #endif
2317:../MQXLITE/kernel/task.c **** 
2318:../MQXLITE/kernel/task.c **** #if MQX_USE_IO
2319:../MQXLITE/kernel/task.c ****     /* Reset the io streams back to the default */
2320:../MQXLITE/kernel/task.c ****     victim_ptr->STDIN_STREAM  = kernel_data->PROCESSOR_STDIN;
2321:../MQXLITE/kernel/task.c ****     victim_ptr->STDOUT_STREAM = kernel_data->PROCESSOR_STDOUT;
2322:../MQXLITE/kernel/task.c ****     victim_ptr->STDERR_STREAM = kernel_data->PROCESSOR_STDERR;
2323:../MQXLITE/kernel/task.c **** #endif
2324:../MQXLITE/kernel/task.c **** 
2325:../MQXLITE/kernel/task.c ****     _int_disable();
 2517              		.loc 1 2325 0
 2518 023c FFF7FEFF 		bl	_int_disable
2326:../MQXLITE/kernel/task.c **** 
2327:../MQXLITE/kernel/task.c ****     if (victim_ptr == td_ptr)
 2519              		.loc 1 2327 0
 2520 0240 FA6C     		ldr	r2, [r7, #76]
 2521 0242 BB6A     		ldr	r3, [r7, #40]
 2522 0244 9A42     		cmp	r2, r3
 2523 0246 0BD1     		bne	.L137
 2524              	.LBB18:
2328:../MQXLITE/kernel/task.c ****     {
2329:../MQXLITE/kernel/task.c ****         _QUEUE_UNLINK(victim_ptr);  /* Remove victim from the queue */
 2525              		.loc 1 2329 0
 2526 0248 FB6C     		ldr	r3, [r7, #76]
 2527 024a 5B68     		ldr	r3, [r3, #4]
 2528 024c BB61     		str	r3, [r7, #24]
 2529 024e FB6C     		ldr	r3, [r7, #76]
 2530 0250 1B68     		ldr	r3, [r3]
 2531 0252 7B61     		str	r3, [r7, #20]
 2532 0254 BB69     		ldr	r3, [r7, #24]
 2533 0256 7A69     		ldr	r2, [r7, #20]
 2534 0258 1A60     		str	r2, [r3]
 2535 025a 7B69     		ldr	r3, [r7, #20]
 2536 025c BA69     		ldr	r2, [r7, #24]
 2537 025e 5A60     		str	r2, [r3, #4]
 2538              	.L137:
 2539              	.LBE18:
2330:../MQXLITE/kernel/task.c ****     } /* Endif */
2331:../MQXLITE/kernel/task.c **** 
2332:../MQXLITE/kernel/task.c ****     /* Rebuild the task's initial context */
2333:../MQXLITE/kernel/task.c ****     if (FALSE == _psp_build_stack_frame(victim_ptr, stack_ptr, stack_size, template_ptr, victim_ptr
 2540              		.loc 1 2333 0
 2541 0260 FB6C     		ldr	r3, [r7, #76]
 2542 0262 9B8C     		ldrh	r3, [r3, #36]
 2543 0264 1C1C     		mov	r4, r3
 2544 0266 F86C     		ldr	r0, [r7, #76]
 2545 0268 796E     		ldr	r1, [r7, #100]
 2546 026a FA6D     		ldr	r2, [r7, #92]
 2547 026c 7B6A     		ldr	r3, [r7, #36]
 2548 026e 0094     		str	r4, [sp]
 2549 0270 3C6E     		ldr	r4, [r7, #96]
 2550 0272 0194     		str	r4, [sp, #4]
 2551 0274 FFF7FEFF 		bl	_psp_build_stack_frame
 2552 0278 031C     		mov	r3, r0
 2553 027a 01D1     		bne	.L138
2334:../MQXLITE/kernel/task.c ****     {
2335:../MQXLITE/kernel/task.c ****         /* build stack failed */
2336:../MQXLITE/kernel/task.c ****         return MQX_OUT_OF_MEMORY;
 2554              		.loc 1 2336 0
 2555 027c 0423     		mov	r3, #4
 2556 027e 1EE0     		b	.L120
 2557              	.L138:
2337:../MQXLITE/kernel/task.c ****     }
2338:../MQXLITE/kernel/task.c **** 
2339:../MQXLITE/kernel/task.c ****     if (blocked)
 2558              		.loc 1 2339 0
 2559 0280 7B68     		ldr	r3, [r7, #4]
 2560 0282 002B     		cmp	r3, #0
 2561 0284 03D0     		beq	.L139
2340:../MQXLITE/kernel/task.c ****     {
2341:../MQXLITE/kernel/task.c ****         victim_ptr->STATE = BLOCKED;
 2562              		.loc 1 2341 0
 2563 0286 FB6C     		ldr	r3, [r7, #76]
 2564 0288 0322     		mov	r2, #3
 2565 028a 9A60     		str	r2, [r3, #8]
 2566 028c 03E0     		b	.L140
 2567              	.L139:
2342:../MQXLITE/kernel/task.c ****     }
2343:../MQXLITE/kernel/task.c ****     else
2344:../MQXLITE/kernel/task.c ****     {
2345:../MQXLITE/kernel/task.c ****         _task_ready_internal(victim_ptr);
 2568              		.loc 1 2345 0
 2569 028e FB6C     		ldr	r3, [r7, #76]
 2570 0290 181C     		mov	r0, r3
 2571 0292 FFF7FEFF 		bl	_task_ready_internal
 2572              	.L140:
2346:../MQXLITE/kernel/task.c ****     } /* Endif */
2347:../MQXLITE/kernel/task.c **** 
2348:../MQXLITE/kernel/task.c ****     victim_ptr->DISABLED_LEVEL = 0;
 2573              		.loc 1 2348 0
 2574 0296 FB6C     		ldr	r3, [r7, #76]
 2575 0298 0022     		mov	r2, #0
 2576 029a 9A64     		str	r2, [r3, #72]
2349:../MQXLITE/kernel/task.c **** 
2350:../MQXLITE/kernel/task.c ****     if (victim_ptr == td_ptr)
 2577              		.loc 1 2350 0
 2578 029c FA6C     		ldr	r2, [r7, #76]
 2579 029e BB6A     		ldr	r3, [r7, #40]
 2580 02a0 9A42     		cmp	r2, r3
 2581 02a2 01D1     		bne	.L141
2351:../MQXLITE/kernel/task.c ****     {
2352:../MQXLITE/kernel/task.c ****         /*
2353:../MQXLITE/kernel/task.c ****          * The active task is to be restarted.
2354:../MQXLITE/kernel/task.c ****          * Will not return from here
2355:../MQXLITE/kernel/task.c ****          */
2356:../MQXLITE/kernel/task.c ****         _sched_run_internal();
 2582              		.loc 1 2356 0
 2583 02a4 FFF7FEFF 		bl	_sched_run_internal
 2584              	.L141:
