   1              		.cpu cortex-m0
   2              		.fpu softvfp
   3              		.eabi_attribute 20, 1
   4              		.eabi_attribute 21, 1
   5              		.eabi_attribute 23, 3
   6              		.eabi_attribute 24, 1
   7              		.eabi_attribute 25, 1
   8              		.eabi_attribute 26, 1
   9              		.eabi_attribute 30, 6
  10              		.eabi_attribute 34, 0
  11              		.eabi_attribute 18, 4
  12              		.code	16
  13              		.file	"BitIoLdd9.c"
  14              		.text
  15              	.Ltext0:
  16              		.cfi_sections	.debug_frame
  17              		.section	.bss.DeviceDataPrv__DEFAULT_RTOS_ALLOC,"aw",%nobits
  18              		.align	2
  21              	DeviceDataPrv__DEFAULT_RTOS_ALLOC:
  22 0000 00000000 		.space	4
  23              		.section	.text.BitIoLdd9_Init,"ax",%progbits
  24              		.align	2
  25              		.global	BitIoLdd9_Init
  26              		.code	16
  27              		.thumb_func
  29              	BitIoLdd9_Init:
  30              	.LFB0:
  31              		.file 1 "../Generated_Code/BitIoLdd9.c"
   1:../Generated_Code/BitIoLdd9.c **** /** ###################################################################
   2:../Generated_Code/BitIoLdd9.c **** **     THIS COMPONENT MODULE IS GENERATED BY THE TOOL. DO NOT MODIFY IT.
   3:../Generated_Code/BitIoLdd9.c **** **     Filename    : BitIoLdd9.c
   4:../Generated_Code/BitIoLdd9.c **** **     Project     : ProcessorExpert
   5:../Generated_Code/BitIoLdd9.c **** **     Processor   : MKL25Z128VLK4
   6:../Generated_Code/BitIoLdd9.c **** **     Component   : BitIO_LDD
   7:../Generated_Code/BitIoLdd9.c **** **     Version     : Component 01.031, Driver 01.00, CPU db: 3.00.000
   8:../Generated_Code/BitIoLdd9.c **** **     Compiler    : GNU C Compiler
   9:../Generated_Code/BitIoLdd9.c **** **     Date/Time   : 2013-09-09, 14:34, # CodeGen: 47
  10:../Generated_Code/BitIoLdd9.c **** **     Abstract    :
  11:../Generated_Code/BitIoLdd9.c **** **         The HAL BitIO component provides a low level API for unified
  12:../Generated_Code/BitIoLdd9.c **** **         access to general purpose digital input/output pins across
  13:../Generated_Code/BitIoLdd9.c **** **         various device designs.
  14:../Generated_Code/BitIoLdd9.c **** **
  15:../Generated_Code/BitIoLdd9.c **** **         RTOS drivers using HAL BitIO API are simpler and more
  16:../Generated_Code/BitIoLdd9.c **** **         portable to various microprocessors.
  17:../Generated_Code/BitIoLdd9.c **** **     Settings    :
  18:../Generated_Code/BitIoLdd9.c **** **          Component name                                 : BitIoLdd9
  19:../Generated_Code/BitIoLdd9.c **** **          Pin for I/O                                    : ADC0_DM3/ADC0_SE7a/PTE23/TPM2_CH1/UART
  20:../Generated_Code/BitIoLdd9.c **** **          Pin signal                                     : 
  21:../Generated_Code/BitIoLdd9.c **** **          Direction                                      : Input/Output
  22:../Generated_Code/BitIoLdd9.c **** **          Initialization                                 : 
  23:../Generated_Code/BitIoLdd9.c **** **            Init. direction                              : Output
  24:../Generated_Code/BitIoLdd9.c **** **            Init. value                                  : 0
  25:../Generated_Code/BitIoLdd9.c **** **            Auto Initialization                          : yes
  26:../Generated_Code/BitIoLdd9.c **** **          Safe mode                                      : yes
  27:../Generated_Code/BitIoLdd9.c **** **     Contents    :
  28:../Generated_Code/BitIoLdd9.c **** **         Init   - LDD_TDeviceData* BitIoLdd9_Init(LDD_TUserData *UserDataPtr);
  29:../Generated_Code/BitIoLdd9.c **** **         SetDir - void BitIoLdd9_SetDir(LDD_TDeviceData *DeviceDataPtr, bool Dir);
  30:../Generated_Code/BitIoLdd9.c **** **         GetVal - bool BitIoLdd9_GetVal(LDD_TDeviceData *DeviceDataPtr);
  31:../Generated_Code/BitIoLdd9.c **** **         PutVal - void BitIoLdd9_PutVal(LDD_TDeviceData *DeviceDataPtr, bool Val);
  32:../Generated_Code/BitIoLdd9.c **** **         ClrVal - void BitIoLdd9_ClrVal(LDD_TDeviceData *DeviceDataPtr);
  33:../Generated_Code/BitIoLdd9.c **** **         SetVal - void BitIoLdd9_SetVal(LDD_TDeviceData *DeviceDataPtr);
  34:../Generated_Code/BitIoLdd9.c **** **
  35:../Generated_Code/BitIoLdd9.c **** **     Copyright : 1997 - 2012 Freescale, Inc. All Rights Reserved.
  36:../Generated_Code/BitIoLdd9.c **** **     
  37:../Generated_Code/BitIoLdd9.c **** **     http      : www.freescale.com
  38:../Generated_Code/BitIoLdd9.c **** **     mail      : support@freescale.com
  39:../Generated_Code/BitIoLdd9.c **** ** ###################################################################*/
  40:../Generated_Code/BitIoLdd9.c **** 
  41:../Generated_Code/BitIoLdd9.c **** /* MODULE BitIoLdd9. */
  42:../Generated_Code/BitIoLdd9.c **** 
  43:../Generated_Code/BitIoLdd9.c **** #include "BitIoLdd9.h"
  44:../Generated_Code/BitIoLdd9.c **** 
  45:../Generated_Code/BitIoLdd9.c **** typedef struct {
  46:../Generated_Code/BitIoLdd9.c ****   LDD_TUserData *UserDataPtr;          /* Pointer to user data */
  47:../Generated_Code/BitIoLdd9.c **** } BitIoLdd9_TDeviceData;               /* Device data structure type */
  48:../Generated_Code/BitIoLdd9.c **** 
  49:../Generated_Code/BitIoLdd9.c **** typedef BitIoLdd9_TDeviceData *BitIoLdd9_TDeviceDataPtr ; /* Pointer to the device data structure. 
  50:../Generated_Code/BitIoLdd9.c **** 
  51:../Generated_Code/BitIoLdd9.c **** /* {MQXLite RTOS Adapter} Static object used for simulation of dynamic driver memory allocation */
  52:../Generated_Code/BitIoLdd9.c **** static BitIoLdd9_TDeviceData DeviceDataPrv__DEFAULT_RTOS_ALLOC;
  53:../Generated_Code/BitIoLdd9.c **** /*
  54:../Generated_Code/BitIoLdd9.c **** ** ===================================================================
  55:../Generated_Code/BitIoLdd9.c **** **     Method      :  BitIoLdd9_Init (component BitIO_LDD)
  56:../Generated_Code/BitIoLdd9.c **** **
  57:../Generated_Code/BitIoLdd9.c **** **     Description :
  58:../Generated_Code/BitIoLdd9.c **** **         Initializes the device. Allocates memory for the device data
  59:../Generated_Code/BitIoLdd9.c **** **         structure, allocates interrupt vectors and sets interrupt
  60:../Generated_Code/BitIoLdd9.c **** **         priority, sets pin routing, sets timing, etc. If the "Enable
  61:../Generated_Code/BitIoLdd9.c **** **         in init. code" is set to "yes" value then the device is also
  62:../Generated_Code/BitIoLdd9.c **** **         enabled(see the description of the Enable() method). In this
  63:../Generated_Code/BitIoLdd9.c **** **         case the Enable() method is not necessary and needn't to be
  64:../Generated_Code/BitIoLdd9.c **** **         generated. 
  65:../Generated_Code/BitIoLdd9.c **** **     Parameters  :
  66:../Generated_Code/BitIoLdd9.c **** **         NAME            - DESCRIPTION
  67:../Generated_Code/BitIoLdd9.c **** **       * UserDataPtr     - Pointer to the user or
  68:../Generated_Code/BitIoLdd9.c **** **                           RTOS specific data. This pointer will be
  69:../Generated_Code/BitIoLdd9.c **** **                           passed as an event or callback parameter.
  70:../Generated_Code/BitIoLdd9.c **** **     Returns     :
  71:../Generated_Code/BitIoLdd9.c **** **         ---             - Pointer to the dynamically allocated
  72:../Generated_Code/BitIoLdd9.c **** **                           private structure or NULL if there was an
  73:../Generated_Code/BitIoLdd9.c **** **                           error.
  74:../Generated_Code/BitIoLdd9.c **** ** ===================================================================
  75:../Generated_Code/BitIoLdd9.c **** */
  76:../Generated_Code/BitIoLdd9.c **** LDD_TDeviceData* BitIoLdd9_Init(LDD_TUserData *UserDataPtr)
  77:../Generated_Code/BitIoLdd9.c **** {
  32              		.loc 1 77 0
  33              		.cfi_startproc
  34 0000 80B5     		push	{r7, lr}
  35              	.LCFI0:
  36              		.cfi_def_cfa_offset 8
  37              		.cfi_offset 7, -8
  38              		.cfi_offset 14, -4
  39 0002 84B0     		sub	sp, sp, #16
  40              	.LCFI1:
  41              		.cfi_def_cfa_offset 24
  42 0004 00AF     		add	r7, sp, #0
  43              	.LCFI2:
  44              		.cfi_def_cfa_register 7
  45 0006 7860     		str	r0, [r7, #4]
  78:../Generated_Code/BitIoLdd9.c ****   /* Allocate device structure */
  79:../Generated_Code/BitIoLdd9.c ****   BitIoLdd9_TDeviceDataPtr DeviceDataPrv;
  80:../Generated_Code/BitIoLdd9.c ****   /* {MQXLite RTOS Adapter} Driver memory allocation: Dynamic allocation is simulated by a pointer 
  81:../Generated_Code/BitIoLdd9.c ****   DeviceDataPrv = &DeviceDataPrv__DEFAULT_RTOS_ALLOC;
  46              		.loc 1 81 0
  47 0008 124B     		ldr	r3, .L2
  48 000a FB60     		str	r3, [r7, #12]
  82:../Generated_Code/BitIoLdd9.c **** 
  83:../Generated_Code/BitIoLdd9.c ****   DeviceDataPrv->UserDataPtr = UserDataPtr; /* Store the RTOS device structure */
  49              		.loc 1 83 0
  50 000c FB68     		ldr	r3, [r7, #12]
  51 000e 7A68     		ldr	r2, [r7, #4]
  52 0010 1A60     		str	r2, [r3]
  84:../Generated_Code/BitIoLdd9.c **** 
  85:../Generated_Code/BitIoLdd9.c ****   /* Configure pin as output */
  86:../Generated_Code/BitIoLdd9.c ****   /* GPIOE_PDDR: PDD|=0x00800000 */
  87:../Generated_Code/BitIoLdd9.c ****   GPIOE_PDDR |= GPIO_PDDR_PDD(0x00800000);                                                   
  53              		.loc 1 87 0
  54 0012 114B     		ldr	r3, .L2+4
  55 0014 104A     		ldr	r2, .L2+4
  56 0016 5269     		ldr	r2, [r2, #20]
  57 0018 8021     		mov	r1, #128
  58 001a 0904     		lsl	r1, r1, #16
  59 001c 0A43     		orr	r2, r1
  60 001e 5A61     		str	r2, [r3, #20]
  88:../Generated_Code/BitIoLdd9.c **** 
  89:../Generated_Code/BitIoLdd9.c ****   /* Set initialization value */
  90:../Generated_Code/BitIoLdd9.c ****   /* GPIOE_PDOR: PDO&=~0x00800000 */
  91:../Generated_Code/BitIoLdd9.c ****   GPIOE_PDOR &= (uint32_t)~(uint32_t)(GPIO_PDOR_PDO(0x00800000));                                  
  61              		.loc 1 91 0
  62 0020 0D4B     		ldr	r3, .L2+4
  63 0022 0D4A     		ldr	r2, .L2+4
  64 0024 1268     		ldr	r2, [r2]
  65 0026 111C     		mov	r1, r2
  66 0028 0C4A     		ldr	r2, .L2+8
  67 002a 0A40     		and	r2, r1
  68 002c 1A60     		str	r2, [r3]
  92:../Generated_Code/BitIoLdd9.c **** 
  93:../Generated_Code/BitIoLdd9.c ****   /* Initialization of Port Control register */
  94:../Generated_Code/BitIoLdd9.c ****   /* PORTE_PCR23: ISF=0,MUX=1 */
  95:../Generated_Code/BitIoLdd9.c ****   PORTE_PCR23 = (uint32_t)((PORTE_PCR23 & (uint32_t)~(uint32_t)(
  69              		.loc 1 95 0
  70 002e 0C4B     		ldr	r3, .L2+12
  71 0030 0B4A     		ldr	r2, .L2+12
  72 0032 D26D     		ldr	r2, [r2, #92]
  73 0034 111C     		mov	r1, r2
  74 0036 0B4A     		ldr	r2, .L2+16
  75 0038 0A40     		and	r2, r1
  76 003a 8021     		mov	r1, #128
  77 003c 4900     		lsl	r1, r1, #1
  78 003e 0A43     		orr	r2, r1
  79 0040 DA65     		str	r2, [r3, #92]
  96:../Generated_Code/BitIoLdd9.c ****                  PORT_PCR_ISF_MASK |
  97:../Generated_Code/BitIoLdd9.c ****                  PORT_PCR_MUX(0x06)
  98:../Generated_Code/BitIoLdd9.c ****                 )) | (uint32_t)(
  99:../Generated_Code/BitIoLdd9.c ****                  PORT_PCR_MUX(0x01)
 100:../Generated_Code/BitIoLdd9.c ****                 ));                                                  
 101:../Generated_Code/BitIoLdd9.c ****   /* Registration of the device structure */
 102:../Generated_Code/BitIoLdd9.c ****   PE_LDD_RegisterDeviceStructure(PE_LDD_COMPONENT_BitIoLdd9_ID,DeviceDataPrv);
  80              		.loc 1 102 0
  81 0042 094B     		ldr	r3, .L2+20
  82 0044 FA68     		ldr	r2, [r7, #12]
  83 0046 DA63     		str	r2, [r3, #60]
 103:../Generated_Code/BitIoLdd9.c ****   return ((LDD_TDeviceData *)DeviceDataPrv);
  84              		.loc 1 103 0
  85 0048 FB68     		ldr	r3, [r7, #12]
 104:../Generated_Code/BitIoLdd9.c **** }
  86              		.loc 1 104 0
  87 004a 181C     		mov	r0, r3
  88 004c BD46     		mov	sp, r7
  89 004e 04B0     		add	sp, sp, #16
  90              		@ sp needed for prologue
  91 0050 80BD     		pop	{r7, pc}
  92              	.L3:
  93 0052 C046     		.align	2
  94              	.L2:
  95 0054 00000000 		.word	DeviceDataPrv__DEFAULT_RTOS_ALLOC
  96 0058 00F10F40 		.word	1074786560
  97 005c FFFF7FFF 		.word	-8388609
  98 0060 00D00440 		.word	1074057216
  99 0064 FFF8FFFE 		.word	-16779009
 100 0068 00000000 		.word	PE_LDD_DeviceDataList
 101              		.cfi_endproc
 102              	.LFE0:
 104              		.section	.text.BitIoLdd9_SetDir,"ax",%progbits
 105              		.align	2
 106              		.global	BitIoLdd9_SetDir
 107              		.code	16
 108              		.thumb_func
 110              	BitIoLdd9_SetDir:
 111              	.LFB1:
 105:../Generated_Code/BitIoLdd9.c **** /*
 106:../Generated_Code/BitIoLdd9.c **** ** ===================================================================
 107:../Generated_Code/BitIoLdd9.c **** **     Method      :  BitIoLdd9_SetDir (component BitIO_LDD)
 108:../Generated_Code/BitIoLdd9.c **** **
 109:../Generated_Code/BitIoLdd9.c **** **     Description :
 110:../Generated_Code/BitIoLdd9.c **** **         Sets a pin direction (available only if the direction =
 111:../Generated_Code/BitIoLdd9.c **** **         _[input/output]_).
 112:../Generated_Code/BitIoLdd9.c **** **     Parameters  :
 113:../Generated_Code/BitIoLdd9.c **** **         NAME            - DESCRIPTION
 114:../Generated_Code/BitIoLdd9.c **** **       * DeviceDataPtr   - Device data structure
 115:../Generated_Code/BitIoLdd9.c **** **                           pointer returned by <Init> method.
 116:../Generated_Code/BitIoLdd9.c **** **         Dir             - Direction to set. Possible values:
 117:../Generated_Code/BitIoLdd9.c **** **                           <false> - Input
 118:../Generated_Code/BitIoLdd9.c **** **                           <true> - Output
 119:../Generated_Code/BitIoLdd9.c **** **     Returns     : Nothing
 120:../Generated_Code/BitIoLdd9.c **** ** ===================================================================
 121:../Generated_Code/BitIoLdd9.c **** */
 122:../Generated_Code/BitIoLdd9.c **** void BitIoLdd9_SetDir(LDD_TDeviceData *DeviceDataPtr, bool Dir)
 123:../Generated_Code/BitIoLdd9.c **** {
 112              		.loc 1 123 0
 113              		.cfi_startproc
 114 0000 80B5     		push	{r7, lr}
 115              	.LCFI3:
 116              		.cfi_def_cfa_offset 8
 117              		.cfi_offset 7, -8
 118              		.cfi_offset 14, -4
 119 0002 82B0     		sub	sp, sp, #8
 120              	.LCFI4:
 121              		.cfi_def_cfa_offset 16
 122 0004 00AF     		add	r7, sp, #0
 123              	.LCFI5:
 124              		.cfi_def_cfa_register 7
 125 0006 7860     		str	r0, [r7, #4]
 126 0008 0A1C     		mov	r2, r1
 127 000a FB1C     		add	r3, r7, #3
 128 000c 1A70     		strb	r2, [r3]
 124:../Generated_Code/BitIoLdd9.c ****   (void)DeviceDataPtr;                 /* Parameter is not used, suppress unused argument warning *
 125:../Generated_Code/BitIoLdd9.c **** 
 126:../Generated_Code/BitIoLdd9.c ****   if (Dir) {
 129              		.loc 1 126 0
 130 000e FB1C     		add	r3, r7, #3
 131 0010 1B78     		ldrb	r3, [r3]
 132 0012 002B     		cmp	r3, #0
 133 0014 07D0     		beq	.L5
 127:../Generated_Code/BitIoLdd9.c ****     /* Output */
 128:../Generated_Code/BitIoLdd9.c ****     GPIO_PDD_SetPortOutputDirectionMask(BitIoLdd9_MODULE_BASE_ADDRESS, BitIoLdd9_PORT_MASK);
 134              		.loc 1 128 0
 135 0016 094B     		ldr	r3, .L7
 136 0018 084A     		ldr	r2, .L7
 137 001a 5269     		ldr	r2, [r2, #20]
 138 001c 8021     		mov	r1, #128
 139 001e 0904     		lsl	r1, r1, #16
 140 0020 0A43     		orr	r2, r1
 141 0022 5A61     		str	r2, [r3, #20]
 142 0024 06E0     		b	.L4
 143              	.L5:
 129:../Generated_Code/BitIoLdd9.c ****   } else {
 130:../Generated_Code/BitIoLdd9.c ****     /* Input */
 131:../Generated_Code/BitIoLdd9.c ****     GPIO_PDD_SetPortInputDirectionMask(BitIoLdd9_MODULE_BASE_ADDRESS, BitIoLdd9_PORT_MASK);
 144              		.loc 1 131 0
 145 0026 054B     		ldr	r3, .L7
 146 0028 044A     		ldr	r2, .L7
 147 002a 5269     		ldr	r2, [r2, #20]
 148 002c 111C     		mov	r1, r2
 149 002e 044A     		ldr	r2, .L7+4
 150 0030 0A40     		and	r2, r1
 151 0032 5A61     		str	r2, [r3, #20]
 152              	.L4:
 132:../Generated_Code/BitIoLdd9.c ****   }
 133:../Generated_Code/BitIoLdd9.c **** }
 153              		.loc 1 133 0
 154 0034 BD46     		mov	sp, r7
 155 0036 02B0     		add	sp, sp, #8
 156              		@ sp needed for prologue
 157 0038 80BD     		pop	{r7, pc}
 158              	.L8:
 159 003a C046     		.align	2
 160              	.L7:
 161 003c 00F10FF8 		.word	-133172992
 162 0040 FFFF7FFF 		.word	-8388609
 163              		.cfi_endproc
 164              	.LFE1:
 166              		.section	.text.BitIoLdd9_GetVal,"ax",%progbits
 167              		.align	2
 168              		.global	BitIoLdd9_GetVal
 169              		.code	16
 170              		.thumb_func
 172              	BitIoLdd9_GetVal:
 173              	.LFB2:
 134:../Generated_Code/BitIoLdd9.c **** 
 135:../Generated_Code/BitIoLdd9.c **** /*
 136:../Generated_Code/BitIoLdd9.c **** ** ===================================================================
 137:../Generated_Code/BitIoLdd9.c **** **     Method      :  BitIoLdd9_GetVal (component BitIO_LDD)
 138:../Generated_Code/BitIoLdd9.c **** **
 139:../Generated_Code/BitIoLdd9.c **** **     Description :
 140:../Generated_Code/BitIoLdd9.c **** **         Returns the input/output value. If the direction is [input]
 141:../Generated_Code/BitIoLdd9.c **** **         then the input value of the pin is read and returned. If the
 142:../Generated_Code/BitIoLdd9.c **** **         direction is [output] then the last written value is read
 143:../Generated_Code/BitIoLdd9.c **** **         and returned (see <Safe mode> property for limitations).
 144:../Generated_Code/BitIoLdd9.c **** **         This method cannot be disabled if direction is [input].
 145:../Generated_Code/BitIoLdd9.c **** **     Parameters  :
 146:../Generated_Code/BitIoLdd9.c **** **         NAME            - DESCRIPTION
 147:../Generated_Code/BitIoLdd9.c **** **       * DeviceDataPtr   - Device data structure
 148:../Generated_Code/BitIoLdd9.c **** **                           pointer returned by <Init> method.
 149:../Generated_Code/BitIoLdd9.c **** **     Returns     :
 150:../Generated_Code/BitIoLdd9.c **** **         ---             - Input or output value. Possible values:
 151:../Generated_Code/BitIoLdd9.c **** **                           <false> - logical "0" (Low level)
 152:../Generated_Code/BitIoLdd9.c **** **                           <true> - logical "1" (High level)
 153:../Generated_Code/BitIoLdd9.c **** ** ===================================================================
 154:../Generated_Code/BitIoLdd9.c **** */
 155:../Generated_Code/BitIoLdd9.c **** bool BitIoLdd9_GetVal(LDD_TDeviceData *DeviceDataPtr)
 156:../Generated_Code/BitIoLdd9.c **** {
 174              		.loc 1 156 0
 175              		.cfi_startproc
 176 0000 80B5     		push	{r7, lr}
 177              	.LCFI6:
 178              		.cfi_def_cfa_offset 8
 179              		.cfi_offset 7, -8
 180              		.cfi_offset 14, -4
 181 0002 84B0     		sub	sp, sp, #16
 182              	.LCFI7:
 183              		.cfi_def_cfa_offset 24
 184 0004 00AF     		add	r7, sp, #0
 185              	.LCFI8:
 186              		.cfi_def_cfa_register 7
 187 0006 7860     		str	r0, [r7, #4]
 157:../Generated_Code/BitIoLdd9.c ****   uint32_t portData;                   /* Port data masked according to the bit used */
 158:../Generated_Code/BitIoLdd9.c **** 
 159:../Generated_Code/BitIoLdd9.c ****   (void)DeviceDataPtr;                 /* Parameter is not used, suppress unused argument warning *
 160:../Generated_Code/BitIoLdd9.c **** 
 161:../Generated_Code/BitIoLdd9.c ****   if ((GPIO_PDD_GetPortDirection(BitIoLdd9_MODULE_BASE_ADDRESS) & BitIoLdd9_PORT_MASK) == 0U) {
 188              		.loc 1 161 0
 189 0008 0E4B     		ldr	r3, .L12
 190 000a 5B69     		ldr	r3, [r3, #20]
 191 000c 1A1C     		mov	r2, r3
 192 000e 8023     		mov	r3, #128
 193 0010 1B04     		lsl	r3, r3, #16
 194 0012 1340     		and	r3, r2
 195 0014 07D1     		bne	.L10
 162:../Generated_Code/BitIoLdd9.c ****     /* port is configured as input */
 163:../Generated_Code/BitIoLdd9.c ****     portData = GPIO_PDD_GetPortDataInput(BitIoLdd9_MODULE_BASE_ADDRESS) & BitIoLdd9_PORT_MASK;
 196              		.loc 1 163 0
 197 0016 0B4B     		ldr	r3, .L12
 198 0018 1B69     		ldr	r3, [r3, #16]
 199 001a 1A1C     		mov	r2, r3
 200 001c 8023     		mov	r3, #128
 201 001e 1B04     		lsl	r3, r3, #16
 202 0020 1340     		and	r3, r2
 203 0022 FB60     		str	r3, [r7, #12]
 204 0024 06E0     		b	.L11
 205              	.L10:
 164:../Generated_Code/BitIoLdd9.c ****   } else {
 165:../Generated_Code/BitIoLdd9.c ****     /* port is configured as output */
 166:../Generated_Code/BitIoLdd9.c ****     portData = GPIO_PDD_GetPortDataOutput(BitIoLdd9_MODULE_BASE_ADDRESS) & BitIoLdd9_PORT_MASK;
 206              		.loc 1 166 0
 207 0026 074B     		ldr	r3, .L12
 208 0028 1B68     		ldr	r3, [r3]
 209 002a 1A1C     		mov	r2, r3
 210 002c 8023     		mov	r3, #128
 211 002e 1B04     		lsl	r3, r3, #16
 212 0030 1340     		and	r3, r2
 213 0032 FB60     		str	r3, [r7, #12]
 214              	.L11:
 167:../Generated_Code/BitIoLdd9.c ****   }
 168:../Generated_Code/BitIoLdd9.c **** 
 169:../Generated_Code/BitIoLdd9.c ****   return (portData != 0U) ? (bool)TRUE : (bool)FALSE;
 215              		.loc 1 169 0
 216 0034 FB68     		ldr	r3, [r7, #12]
 217 0036 5A1E     		sub	r2, r3, #1
 218 0038 9341     		sbc	r3, r3, r2
 219 003a DBB2     		uxtb	r3, r3
 170:../Generated_Code/BitIoLdd9.c **** }
 220              		.loc 1 170 0
 221 003c 181C     		mov	r0, r3
 222 003e BD46     		mov	sp, r7
 223 0040 04B0     		add	sp, sp, #16
 224              		@ sp needed for prologue
 225 0042 80BD     		pop	{r7, pc}
 226              	.L13:
 227              		.align	2
 228              	.L12:
 229 0044 00F10FF8 		.word	-133172992
 230              		.cfi_endproc
 231              	.LFE2:
 233              		.section	.text.BitIoLdd9_PutVal,"ax",%progbits
 234              		.align	2
 235              		.global	BitIoLdd9_PutVal
 236              		.code	16
 237              		.thumb_func
 239              	BitIoLdd9_PutVal:
 240              	.LFB3:
 171:../Generated_Code/BitIoLdd9.c **** 
 172:../Generated_Code/BitIoLdd9.c **** /*
 173:../Generated_Code/BitIoLdd9.c **** ** ===================================================================
 174:../Generated_Code/BitIoLdd9.c **** **     Method      :  BitIoLdd9_PutVal (component BitIO_LDD)
 175:../Generated_Code/BitIoLdd9.c **** **
 176:../Generated_Code/BitIoLdd9.c **** **     Description :
 177:../Generated_Code/BitIoLdd9.c **** **         The specified output value is set. If the direction is <b>
 178:../Generated_Code/BitIoLdd9.c **** **         input</b>, the component saves the value to a memory or a
 179:../Generated_Code/BitIoLdd9.c **** **         register and this value will be written to the pin after
 180:../Generated_Code/BitIoLdd9.c **** **         switching to the output mode (using <tt>SetDir(TRUE)</tt>;
 181:../Generated_Code/BitIoLdd9.c **** **         see <a href="BitIOProperties.html#SafeMode">Safe mode</a>
 182:../Generated_Code/BitIoLdd9.c **** **         property for limitations). If the direction is <b>output</b>,
 183:../Generated_Code/BitIoLdd9.c **** **         it writes the value to the pin. (Method is available only if
 184:../Generated_Code/BitIoLdd9.c **** **         the direction = <u><tt>output</tt></u> or <u><tt>
 185:../Generated_Code/BitIoLdd9.c **** **         input/output</tt></u>).
 186:../Generated_Code/BitIoLdd9.c **** **     Parameters  :
 187:../Generated_Code/BitIoLdd9.c **** **         NAME            - DESCRIPTION
 188:../Generated_Code/BitIoLdd9.c **** **       * DeviceDataPtr   - Device data structure
 189:../Generated_Code/BitIoLdd9.c **** **                           pointer returned by <Init> method.
 190:../Generated_Code/BitIoLdd9.c **** **         Val             - Output value. Possible values:
 191:../Generated_Code/BitIoLdd9.c **** **                           <false> - logical "0" (Low level)
 192:../Generated_Code/BitIoLdd9.c **** **                           <true> - logical "1" (High level)
 193:../Generated_Code/BitIoLdd9.c **** **     Returns     : Nothing
 194:../Generated_Code/BitIoLdd9.c **** ** ===================================================================
 195:../Generated_Code/BitIoLdd9.c **** */
 196:../Generated_Code/BitIoLdd9.c **** void BitIoLdd9_PutVal(LDD_TDeviceData *DeviceDataPtr, bool Val)
 197:../Generated_Code/BitIoLdd9.c **** {
 241              		.loc 1 197 0
 242              		.cfi_startproc
 243 0000 80B5     		push	{r7, lr}
 244              	.LCFI9:
 245              		.cfi_def_cfa_offset 8
 246              		.cfi_offset 7, -8
 247              		.cfi_offset 14, -4
 248 0002 82B0     		sub	sp, sp, #8
 249              	.LCFI10:
 250              		.cfi_def_cfa_offset 16
 251 0004 00AF     		add	r7, sp, #0
 252              	.LCFI11:
 253              		.cfi_def_cfa_register 7
 254 0006 7860     		str	r0, [r7, #4]
 255 0008 0A1C     		mov	r2, r1
 256 000a FB1C     		add	r3, r7, #3
 257 000c 1A70     		strb	r2, [r3]
 198:../Generated_Code/BitIoLdd9.c ****   (void)DeviceDataPtr;                 /* Parameter is not used, suppress unused argument warning *
 199:../Generated_Code/BitIoLdd9.c **** 
 200:../Generated_Code/BitIoLdd9.c ****   if (Val) {
 258              		.loc 1 200 0
 259 000e FB1C     		add	r3, r7, #3
 260 0010 1B78     		ldrb	r3, [r3]
 261 0012 002B     		cmp	r3, #0
 262 0014 04D0     		beq	.L15
 201:../Generated_Code/BitIoLdd9.c ****     GPIO_PDD_SetPortDataOutputMask(BitIoLdd9_MODULE_BASE_ADDRESS, BitIoLdd9_PORT_MASK);
 263              		.loc 1 201 0
 264 0016 064B     		ldr	r3, .L17
 265 0018 8022     		mov	r2, #128
 266 001a 1204     		lsl	r2, r2, #16
 267 001c 5A60     		str	r2, [r3, #4]
 268 001e 03E0     		b	.L14
 269              	.L15:
 202:../Generated_Code/BitIoLdd9.c ****   } else { /* !Val */
 203:../Generated_Code/BitIoLdd9.c ****     GPIO_PDD_ClearPortDataOutputMask(BitIoLdd9_MODULE_BASE_ADDRESS, BitIoLdd9_PORT_MASK);
 270              		.loc 1 203 0
 271 0020 034B     		ldr	r3, .L17
 272 0022 8022     		mov	r2, #128
 273 0024 1204     		lsl	r2, r2, #16
 274 0026 9A60     		str	r2, [r3, #8]
 275              	.L14:
 204:../Generated_Code/BitIoLdd9.c ****   } /* !Val */
 205:../Generated_Code/BitIoLdd9.c **** }
 276              		.loc 1 205 0
 277 0028 BD46     		mov	sp, r7
 278 002a 02B0     		add	sp, sp, #8
 279              		@ sp needed for prologue
 280 002c 80BD     		pop	{r7, pc}
 281              	.L18:
 282 002e C046     		.align	2
 283              	.L17:
 284 0030 00F10FF8 		.word	-133172992
 285              		.cfi_endproc
 286              	.LFE3:
 288              		.section	.text.BitIoLdd9_ClrVal,"ax",%progbits
 289              		.align	2
 290              		.global	BitIoLdd9_ClrVal
 291              		.code	16
 292              		.thumb_func
 294              	BitIoLdd9_ClrVal:
 295              	.LFB4:
 206:../Generated_Code/BitIoLdd9.c **** 
 207:../Generated_Code/BitIoLdd9.c **** /*
 208:../Generated_Code/BitIoLdd9.c **** ** ===================================================================
 209:../Generated_Code/BitIoLdd9.c **** **     Method      :  BitIoLdd9_ClrVal (component BitIO_LDD)
 210:../Generated_Code/BitIoLdd9.c **** **
 211:../Generated_Code/BitIoLdd9.c **** **     Description :
 212:../Generated_Code/BitIoLdd9.c **** **         Clears (set to zero) the output value. It is equivalent to
 213:../Generated_Code/BitIoLdd9.c **** **         the [PutVal(FALSE)]. This method is available only if the
 214:../Generated_Code/BitIoLdd9.c **** **         direction = _[output]_ or _[input/output]_.
 215:../Generated_Code/BitIoLdd9.c **** **     Parameters  :
 216:../Generated_Code/BitIoLdd9.c **** **         NAME            - DESCRIPTION
 217:../Generated_Code/BitIoLdd9.c **** **       * DeviceDataPtr   - Pointer to device data
 218:../Generated_Code/BitIoLdd9.c **** **                           structure returned by <Init> method.
 219:../Generated_Code/BitIoLdd9.c **** **     Returns     : Nothing
 220:../Generated_Code/BitIoLdd9.c **** ** ===================================================================
 221:../Generated_Code/BitIoLdd9.c **** */
 222:../Generated_Code/BitIoLdd9.c **** void BitIoLdd9_ClrVal(LDD_TDeviceData *DeviceDataPtr)
 223:../Generated_Code/BitIoLdd9.c **** {
 296              		.loc 1 223 0
 297              		.cfi_startproc
 298 0000 80B5     		push	{r7, lr}
 299              	.LCFI12:
 300              		.cfi_def_cfa_offset 8
 301              		.cfi_offset 7, -8
 302              		.cfi_offset 14, -4
 303 0002 82B0     		sub	sp, sp, #8
 304              	.LCFI13:
 305              		.cfi_def_cfa_offset 16
 306 0004 00AF     		add	r7, sp, #0
 307              	.LCFI14:
 308              		.cfi_def_cfa_register 7
 309 0006 7860     		str	r0, [r7, #4]
 224:../Generated_Code/BitIoLdd9.c ****   (void)DeviceDataPtr;                 /* Parameter is not used, suppress unused argument warning *
 225:../Generated_Code/BitIoLdd9.c **** 
 226:../Generated_Code/BitIoLdd9.c ****   GPIO_PDD_ClearPortDataOutputMask(BitIoLdd9_MODULE_BASE_ADDRESS, BitIoLdd9_PORT_MASK);
 310              		.loc 1 226 0
 311 0008 034B     		ldr	r3, .L20
 312 000a 8022     		mov	r2, #128
 313 000c 1204     		lsl	r2, r2, #16
 314 000e 9A60     		str	r2, [r3, #8]
 227:../Generated_Code/BitIoLdd9.c **** }
 315              		.loc 1 227 0
 316 0010 BD46     		mov	sp, r7
 317 0012 02B0     		add	sp, sp, #8
 318              		@ sp needed for prologue
 319 0014 80BD     		pop	{r7, pc}
 320              	.L21:
 321 0016 C046     		.align	2
 322              	.L20:
 323 0018 00F10FF8 		.word	-133172992
 324              		.cfi_endproc
 325              	.LFE4:
 327              		.section	.text.BitIoLdd9_SetVal,"ax",%progbits
 328              		.align	2
 329              		.global	BitIoLdd9_SetVal
 330              		.code	16
 331              		.thumb_func
 333              	BitIoLdd9_SetVal:
 334              	.LFB5:
 228:../Generated_Code/BitIoLdd9.c **** 
 229:../Generated_Code/BitIoLdd9.c **** /*
 230:../Generated_Code/BitIoLdd9.c **** ** ===================================================================
 231:../Generated_Code/BitIoLdd9.c **** **     Method      :  BitIoLdd9_SetVal (component BitIO_LDD)
 232:../Generated_Code/BitIoLdd9.c **** **
 233:../Generated_Code/BitIoLdd9.c **** **     Description :
 234:../Generated_Code/BitIoLdd9.c **** **         Sets (to one) the output value. It is equivalent to the
 235:../Generated_Code/BitIoLdd9.c **** **         [PutVal(TRUE)]. This method is available only if the
 236:../Generated_Code/BitIoLdd9.c **** **         direction = _[output]_ or _[input/output]_.
 237:../Generated_Code/BitIoLdd9.c **** **     Parameters  :
 238:../Generated_Code/BitIoLdd9.c **** **         NAME            - DESCRIPTION
 239:../Generated_Code/BitIoLdd9.c **** **       * DeviceDataPtr   - Pointer to device data
 240:../Generated_Code/BitIoLdd9.c **** **                           structure returned by <Init> method.
 241:../Generated_Code/BitIoLdd9.c **** **     Returns     : Nothing
 242:../Generated_Code/BitIoLdd9.c **** ** ===================================================================
 243:../Generated_Code/BitIoLdd9.c **** */
 244:../Generated_Code/BitIoLdd9.c **** void BitIoLdd9_SetVal(LDD_TDeviceData *DeviceDataPtr)
 245:../Generated_Code/BitIoLdd9.c **** {
 335              		.loc 1 245 0
 336              		.cfi_startproc
 337 0000 80B5     		push	{r7, lr}
 338              	.LCFI15:
 339              		.cfi_def_cfa_offset 8
 340              		.cfi_offset 7, -8
 341              		.cfi_offset 14, -4
 342 0002 82B0     		sub	sp, sp, #8
 343              	.LCFI16:
 344              		.cfi_def_cfa_offset 16
 345 0004 00AF     		add	r7, sp, #0
 346              	.LCFI17:
 347              		.cfi_def_cfa_register 7
 348 0006 7860     		str	r0, [r7, #4]
 246:../Generated_Code/BitIoLdd9.c ****   (void)DeviceDataPtr;                 /* Parameter is not used, suppress unused argument warning *
 247:../Generated_Code/BitIoLdd9.c **** 
 248:../Generated_Code/BitIoLdd9.c ****   GPIO_PDD_SetPortDataOutputMask(BitIoLdd9_MODULE_BASE_ADDRESS, BitIoLdd9_PORT_MASK);
 349              		.loc 1 248 0
 350 0008 034B     		ldr	r3, .L23
 351 000a 8022     		mov	r2, #128
 352 000c 1204     		lsl	r2, r2, #16
 353 000e 5A60     		str	r2, [r3, #4]
 249:../Generated_Code/BitIoLdd9.c **** }
 354              		.loc 1 249 0
 355 0010 BD46     		mov	sp, r7
 356 0012 02B0     		add	sp, sp, #8
 357              		@ sp needed for prologue
 358 0014 80BD     		pop	{r7, pc}
 359              	.L24:
 360 0016 C046     		.align	2
 361              	.L23:
 362 0018 00F10FF8 		.word	-133172992
 363              		.cfi_endproc
 364              	.LFE5:
 366              		.text
 367              	.Letext0:
 368              		.file 2 "C:/Freescale/CW MCU v10.3/MCU/ARM_GCC_Support/ewl/EWL_C/include/cstdint"
 369              		.file 3 "../Generated_Code/PE_Types.h"
 370              		.file 4 "../Generated_Code/IO_Map.h"
 371              		.file 5 "../Generated_Code/PE_LDD.h"
 372              		.file 6 "C:/Users/LARM/workspace/MQX-Lite + SPI + Motor + Ultrassom/MQXLITE/psp/cortex_m/psptypes.