   1              		.cpu cortex-m0
   2              		.fpu softvfp
   3              		.eabi_attribute 20, 1
   4              		.eabi_attribute 21, 1
   5              		.eabi_attribute 23, 3
   6              		.eabi_attribute 24, 1
   7              		.eabi_attribute 25, 1
   8              		.eabi_attribute 26, 1
   9              		.eabi_attribute 30, 6
  10              		.eabi_attribute 34, 0
  11              		.eabi_attribute 18, 4
  12              		.code	16
  13              		.file	"TRIG2.c"
  14              		.text
  15              	.Ltext0:
  16              		.cfi_sections	.debug_frame
  17              		.section	.bss.DeviceDataPrv__DEFAULT_RTOS_ALLOC,"aw",%nobits
  18              		.align	2
  21              	DeviceDataPrv__DEFAULT_RTOS_ALLOC:
  22 0000 00000000 		.space	4
  23              		.section	.text.TRIG2_Init,"ax",%progbits
  24              		.align	2
  25              		.global	TRIG2_Init
  26              		.code	16
  27              		.thumb_func
  29              	TRIG2_Init:
  30              	.LFB0:
  31              		.file 1 "../Generated_Code/TRIG2.c"
   1:../Generated_Code/TRIG2.c **** /** ###################################################################
   2:../Generated_Code/TRIG2.c **** **     THIS COMPONENT MODULE IS GENERATED BY THE TOOL. DO NOT MODIFY IT.
   3:../Generated_Code/TRIG2.c **** **     Filename    : TRIG2.c
   4:../Generated_Code/TRIG2.c **** **     Project     : ProcessorExpert
   5:../Generated_Code/TRIG2.c **** **     Processor   : MKL25Z128VLK4
   6:../Generated_Code/TRIG2.c **** **     Component   : BitIO_LDD
   7:../Generated_Code/TRIG2.c **** **     Version     : Component 01.031, Driver 01.00, CPU db: 3.00.000
   8:../Generated_Code/TRIG2.c **** **     Compiler    : GNU C Compiler
   9:../Generated_Code/TRIG2.c **** **     Date/Time   : 2013-09-09, 17:08, # CodeGen: 51
  10:../Generated_Code/TRIG2.c **** **     Abstract    :
  11:../Generated_Code/TRIG2.c **** **         The HAL BitIO component provides a low level API for unified
  12:../Generated_Code/TRIG2.c **** **         access to general purpose digital input/output pins across
  13:../Generated_Code/TRIG2.c **** **         various device designs.
  14:../Generated_Code/TRIG2.c **** **
  15:../Generated_Code/TRIG2.c **** **         RTOS drivers using HAL BitIO API are simpler and more
  16:../Generated_Code/TRIG2.c **** **         portable to various microprocessors.
  17:../Generated_Code/TRIG2.c **** **     Settings    :
  18:../Generated_Code/TRIG2.c **** **          Component name                                 : TRIG2
  19:../Generated_Code/TRIG2.c **** **          Pin for I/O                                    : PTA13/TPM1_CH1
  20:../Generated_Code/TRIG2.c **** **          Pin signal                                     : US_Trig_D3
  21:../Generated_Code/TRIG2.c **** **          Direction                                      : Input/Output
  22:../Generated_Code/TRIG2.c **** **          Initialization                                 : 
  23:../Generated_Code/TRIG2.c **** **            Init. direction                              : Output
  24:../Generated_Code/TRIG2.c **** **            Init. value                                  : 0
  25:../Generated_Code/TRIG2.c **** **            Auto Initialization                          : no
  26:../Generated_Code/TRIG2.c **** **          Safe mode                                      : no
  27:../Generated_Code/TRIG2.c **** **     Contents    :
  28:../Generated_Code/TRIG2.c **** **         Init   - LDD_TDeviceData* TRIG2_Init(LDD_TUserData *UserDataPtr);
  29:../Generated_Code/TRIG2.c **** **         Deinit - void TRIG2_Deinit(LDD_TDeviceData *DeviceDataPtr);
  30:../Generated_Code/TRIG2.c **** **         SetDir - void TRIG2_SetDir(LDD_TDeviceData *DeviceDataPtr, bool Dir);
  31:../Generated_Code/TRIG2.c **** **         GetVal - bool TRIG2_GetVal(LDD_TDeviceData *DeviceDataPtr);
  32:../Generated_Code/TRIG2.c **** **         PutVal - void TRIG2_PutVal(LDD_TDeviceData *DeviceDataPtr, bool Val);
  33:../Generated_Code/TRIG2.c **** **         ClrVal - void TRIG2_ClrVal(LDD_TDeviceData *DeviceDataPtr);
  34:../Generated_Code/TRIG2.c **** **         SetVal - void TRIG2_SetVal(LDD_TDeviceData *DeviceDataPtr);
  35:../Generated_Code/TRIG2.c **** **
  36:../Generated_Code/TRIG2.c **** **     Copyright : 1997 - 2012 Freescale, Inc. All Rights Reserved.
  37:../Generated_Code/TRIG2.c **** **     
  38:../Generated_Code/TRIG2.c **** **     http      : www.freescale.com
  39:../Generated_Code/TRIG2.c **** **     mail      : support@freescale.com
  40:../Generated_Code/TRIG2.c **** ** ###################################################################*/
  41:../Generated_Code/TRIG2.c **** 
  42:../Generated_Code/TRIG2.c **** /* MODULE TRIG2. */
  43:../Generated_Code/TRIG2.c **** 
  44:../Generated_Code/TRIG2.c **** #include "TRIG2.h"
  45:../Generated_Code/TRIG2.c **** 
  46:../Generated_Code/TRIG2.c **** typedef struct {
  47:../Generated_Code/TRIG2.c ****   LDD_TUserData *UserDataPtr;          /* Pointer to user data */
  48:../Generated_Code/TRIG2.c **** } TRIG2_TDeviceData;                   /* Device data structure type */
  49:../Generated_Code/TRIG2.c **** 
  50:../Generated_Code/TRIG2.c **** typedef TRIG2_TDeviceData *TRIG2_TDeviceDataPtr ; /* Pointer to the device data structure. */
  51:../Generated_Code/TRIG2.c **** 
  52:../Generated_Code/TRIG2.c **** /* {MQXLite RTOS Adapter} Static object used for simulation of dynamic driver memory allocation */
  53:../Generated_Code/TRIG2.c **** static TRIG2_TDeviceData DeviceDataPrv__DEFAULT_RTOS_ALLOC;
  54:../Generated_Code/TRIG2.c **** /*
  55:../Generated_Code/TRIG2.c **** ** ===================================================================
  56:../Generated_Code/TRIG2.c **** **     Method      :  TRIG2_Init (component BitIO_LDD)
  57:../Generated_Code/TRIG2.c **** **
  58:../Generated_Code/TRIG2.c **** **     Description :
  59:../Generated_Code/TRIG2.c **** **         Initializes the device. Allocates memory for the device data
  60:../Generated_Code/TRIG2.c **** **         structure, allocates interrupt vectors and sets interrupt
  61:../Generated_Code/TRIG2.c **** **         priority, sets pin routing, sets timing, etc. If the "Enable
  62:../Generated_Code/TRIG2.c **** **         in init. code" is set to "yes" value then the device is also
  63:../Generated_Code/TRIG2.c **** **         enabled(see the description of the Enable() method). In this
  64:../Generated_Code/TRIG2.c **** **         case the Enable() method is not necessary and needn't to be
  65:../Generated_Code/TRIG2.c **** **         generated. 
  66:../Generated_Code/TRIG2.c **** **     Parameters  :
  67:../Generated_Code/TRIG2.c **** **         NAME            - DESCRIPTION
  68:../Generated_Code/TRIG2.c **** **       * UserDataPtr     - Pointer to the user or
  69:../Generated_Code/TRIG2.c **** **                           RTOS specific data. This pointer will be
  70:../Generated_Code/TRIG2.c **** **                           passed as an event or callback parameter.
  71:../Generated_Code/TRIG2.c **** **     Returns     :
  72:../Generated_Code/TRIG2.c **** **         ---             - Pointer to the dynamically allocated
  73:../Generated_Code/TRIG2.c **** **                           private structure or NULL if there was an
  74:../Generated_Code/TRIG2.c **** **                           error.
  75:../Generated_Code/TRIG2.c **** ** ===================================================================
  76:../Generated_Code/TRIG2.c **** */
  77:../Generated_Code/TRIG2.c **** LDD_TDeviceData* TRIG2_Init(LDD_TUserData *UserDataPtr)
  78:../Generated_Code/TRIG2.c **** {
  32              		.loc 1 78 0
  33              		.cfi_startproc
  34 0000 80B5     		push	{r7, lr}
  35              	.LCFI0:
  36              		.cfi_def_cfa_offset 8
  37              		.cfi_offset 7, -8
  38              		.cfi_offset 14, -4
  39 0002 84B0     		sub	sp, sp, #16
  40              	.LCFI1:
  41              		.cfi_def_cfa_offset 24
  42 0004 00AF     		add	r7, sp, #0
  43              	.LCFI2:
  44              		.cfi_def_cfa_register 7
  45 0006 7860     		str	r0, [r7, #4]
  79:../Generated_Code/TRIG2.c ****   /* Allocate device structure */
  80:../Generated_Code/TRIG2.c ****   TRIG2_TDeviceDataPtr DeviceDataPrv;
  81:../Generated_Code/TRIG2.c ****   /* {MQXLite RTOS Adapter} Driver memory allocation: Dynamic allocation is simulated by a pointer 
  82:../Generated_Code/TRIG2.c ****   DeviceDataPrv = &DeviceDataPrv__DEFAULT_RTOS_ALLOC;
  46              		.loc 1 82 0
  47 0008 124B     		ldr	r3, .L2
  48 000a FB60     		str	r3, [r7, #12]
  83:../Generated_Code/TRIG2.c **** 
  84:../Generated_Code/TRIG2.c ****   DeviceDataPrv->UserDataPtr = UserDataPtr; /* Store the RTOS device structure */
  49              		.loc 1 84 0
  50 000c FB68     		ldr	r3, [r7, #12]
  51 000e 7A68     		ldr	r2, [r7, #4]
  52 0010 1A60     		str	r2, [r3]
  85:../Generated_Code/TRIG2.c **** 
  86:../Generated_Code/TRIG2.c ****   /* Configure pin as output */
  87:../Generated_Code/TRIG2.c ****   /* GPIOA_PDDR: PDD|=0x2000 */
  88:../Generated_Code/TRIG2.c ****   GPIOA_PDDR |= GPIO_PDDR_PDD(0x2000);                                                   
  53              		.loc 1 88 0
  54 0012 114B     		ldr	r3, .L2+4
  55 0014 104A     		ldr	r2, .L2+4
  56 0016 5269     		ldr	r2, [r2, #20]
  57 0018 8021     		mov	r1, #128
  58 001a 8901     		lsl	r1, r1, #6
  59 001c 0A43     		orr	r2, r1
  60 001e 5A61     		str	r2, [r3, #20]
  89:../Generated_Code/TRIG2.c **** 
  90:../Generated_Code/TRIG2.c ****   /* Set initialization value */
  91:../Generated_Code/TRIG2.c ****   /* GPIOA_PDOR: PDO&=~0x2000 */
  92:../Generated_Code/TRIG2.c ****   GPIOA_PDOR &= (uint32_t)~(uint32_t)(GPIO_PDOR_PDO(0x2000));                                      
  61              		.loc 1 92 0
  62 0020 0D4B     		ldr	r3, .L2+4
  63 0022 0D4A     		ldr	r2, .L2+4
  64 0024 1268     		ldr	r2, [r2]
  65 0026 111C     		mov	r1, r2
  66 0028 0C4A     		ldr	r2, .L2+8
  67 002a 0A40     		and	r2, r1
  68 002c 1A60     		str	r2, [r3]
  93:../Generated_Code/TRIG2.c **** 
  94:../Generated_Code/TRIG2.c ****   /* Initialization of Port Control register */
  95:../Generated_Code/TRIG2.c ****   /* PORTA_PCR13: ISF=0,MUX=1 */
  96:../Generated_Code/TRIG2.c ****   PORTA_PCR13 = (uint32_t)((PORTA_PCR13 & (uint32_t)~(uint32_t)(
  69              		.loc 1 96 0
  70 002e 0C4B     		ldr	r3, .L2+12
  71 0030 0B4A     		ldr	r2, .L2+12
  72 0032 526B     		ldr	r2, [r2, #52]
  73 0034 111C     		mov	r1, r2
  74 0036 0B4A     		ldr	r2, .L2+16
  75 0038 0A40     		and	r2, r1
  76 003a 8021     		mov	r1, #128
  77 003c 4900     		lsl	r1, r1, #1
  78 003e 0A43     		orr	r2, r1
  79 0040 5A63     		str	r2, [r3, #52]
  97:../Generated_Code/TRIG2.c ****                  PORT_PCR_ISF_MASK |
  98:../Generated_Code/TRIG2.c ****                  PORT_PCR_MUX(0x06)
  99:../Generated_Code/TRIG2.c ****                 )) | (uint32_t)(
 100:../Generated_Code/TRIG2.c ****                  PORT_PCR_MUX(0x01)
 101:../Generated_Code/TRIG2.c ****                 ));                                                  
 102:../Generated_Code/TRIG2.c ****   /* Registration of the device structure */
 103:../Generated_Code/TRIG2.c ****   PE_LDD_RegisterDeviceStructure(PE_LDD_COMPONENT_TRIG2_ID,DeviceDataPrv);
  80              		.loc 1 103 0
  81 0042 094B     		ldr	r3, .L2+20
  82 0044 FA68     		ldr	r2, [r7, #12]
  83 0046 9A64     		str	r2, [r3, #72]
 104:../Generated_Code/TRIG2.c ****   return ((LDD_TDeviceData *)DeviceDataPrv);
  84              		.loc 1 104 0
  85 0048 FB68     		ldr	r3, [r7, #12]
 105:../Generated_Code/TRIG2.c **** }
  86              		.loc 1 105 0
  87 004a 181C     		mov	r0, r3
  88 004c BD46     		mov	sp, r7
  89 004e 04B0     		add	sp, sp, #16
  90              		@ sp needed for prologue
  91 0050 80BD     		pop	{r7, pc}
  92              	.L3:
  93 0052 C046     		.align	2
  94              	.L2:
  95 0054 00000000 		.word	DeviceDataPrv__DEFAULT_RTOS_ALLOC
  96 0058 00F00F40 		.word	1074786304
  97 005c FFDFFFFF 		.word	-8193
  98 0060 00900440 		.word	1074040832
  99 0064 FFF8FFFE 		.word	-16779009
 100 0068 00000000 		.word	PE_LDD_DeviceDataList
 101              		.cfi_endproc
 102              	.LFE0:
 104              		.section	.text.TRIG2_Deinit,"ax",%progbits
 105              		.align	2
 106              		.global	TRIG2_Deinit
 107              		.code	16
 108              		.thumb_func
 110              	TRIG2_Deinit:
 111              	.LFB1:
 106:../Generated_Code/TRIG2.c **** /*
 107:../Generated_Code/TRIG2.c **** ** ===================================================================
 108:../Generated_Code/TRIG2.c **** **     Method      :  TRIG2_Deinit (component BitIO_LDD)
 109:../Generated_Code/TRIG2.c **** **
 110:../Generated_Code/TRIG2.c **** **     Description :
 111:../Generated_Code/TRIG2.c **** **          Deinitializes the device. Switches off the device, frees
 112:../Generated_Code/TRIG2.c **** **         the device data structure memory, interrupts vectors, etc.
 113:../Generated_Code/TRIG2.c **** **     Parameters  :
 114:../Generated_Code/TRIG2.c **** **         NAME            - DESCRIPTION
 115:../Generated_Code/TRIG2.c **** **       * DeviceDataPtr   - Device data structure
 116:../Generated_Code/TRIG2.c **** **                           pointer returned by <Init> method.
 117:../Generated_Code/TRIG2.c **** **     Returns     : Nothing
 118:../Generated_Code/TRIG2.c **** ** ===================================================================
 119:../Generated_Code/TRIG2.c **** */
 120:../Generated_Code/TRIG2.c **** void TRIG2_Deinit(LDD_TDeviceData *DeviceDataPtr)
 121:../Generated_Code/TRIG2.c **** {
 112              		.loc 1 121 0
 113              		.cfi_startproc
 114 0000 80B5     		push	{r7, lr}
 115              	.LCFI3:
 116              		.cfi_def_cfa_offset 8
 117              		.cfi_offset 7, -8
 118              		.cfi_offset 14, -4
 119 0002 82B0     		sub	sp, sp, #8
 120              	.LCFI4:
 121              		.cfi_def_cfa_offset 16
 122 0004 00AF     		add	r7, sp, #0
 123              	.LCFI5:
 124              		.cfi_def_cfa_register 7
 125 0006 7860     		str	r0, [r7, #4]
 122:../Generated_Code/TRIG2.c ****   (void)DeviceDataPtr;                 /* Parameter is not used, suppress unused argument warning *
 123:../Generated_Code/TRIG2.c ****   /* GPIOA_PDDR: PDD&=~0x2000 */
 124:../Generated_Code/TRIG2.c ****   GPIOA_PDDR &= (uint32_t)~(uint32_t)(GPIO_PDDR_PDD(0x2000));                                      
 126              		.loc 1 124 0
 127 0008 064B     		ldr	r3, .L5
 128 000a 064A     		ldr	r2, .L5
 129 000c 5269     		ldr	r2, [r2, #20]
 130 000e 111C     		mov	r1, r2
 131 0010 054A     		ldr	r2, .L5+4
 132 0012 0A40     		and	r2, r1
 133 0014 5A61     		str	r2, [r3, #20]
 125:../Generated_Code/TRIG2.c ****   /* Unregistration of the device structure */
 126:../Generated_Code/TRIG2.c ****   PE_LDD_UnregisterDeviceStructure(PE_LDD_COMPONENT_TRIG2_ID);
 134              		.loc 1 126 0
 135 0016 054B     		ldr	r3, .L5+8
 136 0018 0022     		mov	r2, #0
 137 001a 9A64     		str	r2, [r3, #72]
 127:../Generated_Code/TRIG2.c ****   /* Deallocation of the device structure */
 128:../Generated_Code/TRIG2.c ****   /* {MQXLite RTOS Adapter} Driver memory deallocation: Dynamic allocation is simulated, no dealloc
 129:../Generated_Code/TRIG2.c **** }
 138              		.loc 1 129 0
 139 001c BD46     		mov	sp, r7
 140 001e 02B0     		add	sp, sp, #8
 141              		@ sp needed for prologue
 142 0020 80BD     		pop	{r7, pc}
 143              	.L6:
 144 0022 C046     		.align	2
 145              	.L5:
 146 0024 00F00F40 		.word	1074786304
 147 0028 FFDFFFFF 		.word	-8193
 148 002c 00000000 		.word	PE_LDD_DeviceDataList
 149              		.cfi_endproc
 150              	.LFE1:
 152              		.section	.text.TRIG2_SetDir,"ax",%progbits
 153              		.align	2
 154              		.global	TRIG2_SetDir
 155              		.code	16
 156              		.thumb_func
 158              	TRIG2_SetDir:
 159              	.LFB2:
 130:../Generated_Code/TRIG2.c **** 
 131:../Generated_Code/TRIG2.c **** /*
 132:../Generated_Code/TRIG2.c **** ** ===================================================================
 133:../Generated_Code/TRIG2.c **** **     Method      :  TRIG2_SetDir (component BitIO_LDD)
 134:../Generated_Code/TRIG2.c **** **
 135:../Generated_Code/TRIG2.c **** **     Description :
 136:../Generated_Code/TRIG2.c **** **         Sets a pin direction (available only if the direction =
 137:../Generated_Code/TRIG2.c **** **         _[input/output]_).
 138:../Generated_Code/TRIG2.c **** **     Parameters  :
 139:../Generated_Code/TRIG2.c **** **         NAME            - DESCRIPTION
 140:../Generated_Code/TRIG2.c **** **       * DeviceDataPtr   - Device data structure
 141:../Generated_Code/TRIG2.c **** **                           pointer returned by <Init> method.
 142:../Generated_Code/TRIG2.c **** **         Dir             - Direction to set. Possible values:
 143:../Generated_Code/TRIG2.c **** **                           <false> - Input
 144:../Generated_Code/TRIG2.c **** **                           <true> - Output
 145:../Generated_Code/TRIG2.c **** **     Returns     : Nothing
 146:../Generated_Code/TRIG2.c **** ** ===================================================================
 147:../Generated_Code/TRIG2.c **** */
 148:../Generated_Code/TRIG2.c **** void TRIG2_SetDir(LDD_TDeviceData *DeviceDataPtr, bool Dir)
 149:../Generated_Code/TRIG2.c **** {
 160              		.loc 1 149 0
 161              		.cfi_startproc
 162 0000 80B5     		push	{r7, lr}
 163              	.LCFI6:
 164              		.cfi_def_cfa_offset 8
 165              		.cfi_offset 7, -8
 166              		.cfi_offset 14, -4
 167 0002 82B0     		sub	sp, sp, #8
 168              	.LCFI7:
 169              		.cfi_def_cfa_offset 16
 170 0004 00AF     		add	r7, sp, #0
 171              	.LCFI8:
 172              		.cfi_def_cfa_register 7
 173 0006 7860     		str	r0, [r7, #4]
 174 0008 0A1C     		mov	r2, r1
 175 000a FB1C     		add	r3, r7, #3
 176 000c 1A70     		strb	r2, [r3]
 150:../Generated_Code/TRIG2.c ****   (void)DeviceDataPtr;                 /* Parameter is not used, suppress unused argument warning *
 151:../Generated_Code/TRIG2.c **** 
 152:../Generated_Code/TRIG2.c ****   if (Dir) {
 177              		.loc 1 152 0
 178 000e FB1C     		add	r3, r7, #3
 179 0010 1B78     		ldrb	r3, [r3]
 180 0012 002B     		cmp	r3, #0
 181 0014 07D0     		beq	.L8
 153:../Generated_Code/TRIG2.c ****     /* Output */
 154:../Generated_Code/TRIG2.c ****     GPIO_PDD_SetPortOutputDirectionMask(TRIG2_MODULE_BASE_ADDRESS, TRIG2_PORT_MASK);
 182              		.loc 1 154 0
 183 0016 094B     		ldr	r3, .L10
 184 0018 084A     		ldr	r2, .L10
 185 001a 5269     		ldr	r2, [r2, #20]
 186 001c 8021     		mov	r1, #128
 187 001e 8901     		lsl	r1, r1, #6
 188 0020 0A43     		orr	r2, r1
 189 0022 5A61     		str	r2, [r3, #20]
 190 0024 06E0     		b	.L7
 191              	.L8:
 155:../Generated_Code/TRIG2.c ****   } else {
 156:../Generated_Code/TRIG2.c ****     /* Input */
 157:../Generated_Code/TRIG2.c ****     GPIO_PDD_SetPortInputDirectionMask(TRIG2_MODULE_BASE_ADDRESS, TRIG2_PORT_MASK);
 192              		.loc 1 157 0
 193 0026 054B     		ldr	r3, .L10
 194 0028 044A     		ldr	r2, .L10
 195 002a 5269     		ldr	r2, [r2, #20]
 196 002c 111C     		mov	r1, r2
 197 002e 044A     		ldr	r2, .L10+4
 198 0030 0A40     		and	r2, r1
 199 0032 5A61     		str	r2, [r3, #20]
 200              	.L7:
 158:../Generated_Code/TRIG2.c ****   }
 159:../Generated_Code/TRIG2.c **** }
 201              		.loc 1 159 0
 202 0034 BD46     		mov	sp, r7
 203 0036 02B0     		add	sp, sp, #8
 204              		@ sp needed for prologue
 205 0038 80BD     		pop	{r7, pc}
 206              	.L11:
 207 003a C046     		.align	2
 208              	.L10:
 209 003c 00F00FF8 		.word	-133173248
 210 0040 FFDFFFFF 		.word	-8193
 211              		.cfi_endproc
 212              	.LFE2:
 214              		.section	.text.TRIG2_GetVal,"ax",%progbits
 215              		.align	2
 216              		.global	TRIG2_GetVal
 217              		.code	16
 218              		.thumb_func
 220              	TRIG2_GetVal:
 221              	.LFB3:
 160:../Generated_Code/TRIG2.c **** 
 161:../Generated_Code/TRIG2.c **** /*
 162:../Generated_Code/TRIG2.c **** ** ===================================================================
 163:../Generated_Code/TRIG2.c **** **     Method      :  TRIG2_GetVal (component BitIO_LDD)
 164:../Generated_Code/TRIG2.c **** **
 165:../Generated_Code/TRIG2.c **** **     Description :
 166:../Generated_Code/TRIG2.c **** **         Returns the input/output value. If the direction is [input]
 167:../Generated_Code/TRIG2.c **** **         then the input value of the pin is read and returned. If the
 168:../Generated_Code/TRIG2.c **** **         direction is [output] then the last written value is read
 169:../Generated_Code/TRIG2.c **** **         and returned (see <Safe mode> property for limitations).
 170:../Generated_Code/TRIG2.c **** **         This method cannot be disabled if direction is [input].
 171:../Generated_Code/TRIG2.c **** **     Parameters  :
 172:../Generated_Code/TRIG2.c **** **         NAME            - DESCRIPTION
 173:../Generated_Code/TRIG2.c **** **       * DeviceDataPtr   - Device data structure
 174:../Generated_Code/TRIG2.c **** **                           pointer returned by <Init> method.
 175:../Generated_Code/TRIG2.c **** **     Returns     :
 176:../Generated_Code/TRIG2.c **** **         ---             - Input or output value. Possible values:
 177:../Generated_Code/TRIG2.c **** **                           <false> - logical "0" (Low level)
 178:../Generated_Code/TRIG2.c **** **                           <true> - logical "1" (High level)
 179:../Generated_Code/TRIG2.c **** ** ===================================================================
 180:../Generated_Code/TRIG2.c **** */
 181:../Generated_Code/TRIG2.c **** bool TRIG2_GetVal(LDD_TDeviceData *DeviceDataPtr)
 182:../Generated_Code/TRIG2.c **** {
 222              		.loc 1 182 0
 223              		.cfi_startproc
 224 0000 80B5     		push	{r7, lr}
 225              	.LCFI9:
 226              		.cfi_def_cfa_offset 8
 227              		.cfi_offset 7, -8
 228              		.cfi_offset 14, -4
 229 0002 84B0     		sub	sp, sp, #16
 230              	.LCFI10:
 231              		.cfi_def_cfa_offset 24
 232 0004 00AF     		add	r7, sp, #0
 233              	.LCFI11:
 234              		.cfi_def_cfa_register 7
 235 0006 7860     		str	r0, [r7, #4]
 183:../Generated_Code/TRIG2.c ****   uint32_t portData;                   /* Port data masked according to the bit used */
 184:../Generated_Code/TRIG2.c **** 
 185:../Generated_Code/TRIG2.c ****   (void)DeviceDataPtr;                 /* Parameter is not used, suppress unused argument warning *
 186:../Generated_Code/TRIG2.c **** 
 187:../Generated_Code/TRIG2.c ****   if ((GPIO_PDD_GetPortDirection(TRIG2_MODULE_BASE_ADDRESS) & TRIG2_PORT_MASK) == 0U) {
 236              		.loc 1 187 0
 237 0008 0E4B     		ldr	r3, .L15
 238 000a 5B69     		ldr	r3, [r3, #20]
 239 000c 1A1C     		mov	r2, r3
 240 000e 8023     		mov	r3, #128
 241 0010 9B01     		lsl	r3, r3, #6
 242 0012 1340     		and	r3, r2
 243 0014 07D1     		bne	.L13
 188:../Generated_Code/TRIG2.c ****     /* port is configured as input */
 189:../Generated_Code/TRIG2.c ****     portData = GPIO_PDD_GetPortDataInput(TRIG2_MODULE_BASE_ADDRESS) & TRIG2_PORT_MASK;
 244              		.loc 1 189 0
 245 0016 0B4B     		ldr	r3, .L15
 246 0018 1B69     		ldr	r3, [r3, #16]
 247 001a 1A1C     		mov	r2, r3
 248 001c 8023     		mov	r3, #128
 249 001e 9B01     		lsl	r3, r3, #6
 250 0020 1340     		and	r3, r2
 251 0022 FB60     		str	r3, [r7, #12]
 252 0024 06E0     		b	.L14
 253              	.L13:
 190:../Generated_Code/TRIG2.c ****   } else {
 191:../Generated_Code/TRIG2.c ****     /* port is configured as output */
 192:../Generated_Code/TRIG2.c ****     portData = GPIO_PDD_GetPortDataOutput(TRIG2_MODULE_BASE_ADDRESS) & TRIG2_PORT_MASK;
 254              		.loc 1 192 0
 255 0026 074B     		ldr	r3, .L15
 256 0028 1B68     		ldr	r3, [r3]
 257 002a 1A1C     		mov	r2, r3
 258 002c 8023     		mov	r3, #128
 259 002e 9B01     		lsl	r3, r3, #6
 260 0030 1340     		and	r3, r2
 261 0032 FB60     		str	r3, [r7, #12]
 262              	.L14:
 193:../Generated_Code/TRIG2.c ****   }
 194:../Generated_Code/TRIG2.c **** 
 195:../Generated_Code/TRIG2.c ****   return (portData != 0U) ? (bool)TRUE : (bool)FALSE;
 263              		.loc 1 195 0
 264 0034 FB68     		ldr	r3, [r7, #12]
 265 0036 5A1E     		sub	r2, r3, #1
 266 0038 9341     		sbc	r3, r3, r2
 267 003a DBB2     		uxtb	r3, r3
 196:../Generated_Code/TRIG2.c **** }
 268              		.loc 1 196 0
 269 003c 181C     		mov	r0, r3
 270 003e BD46     		mov	sp, r7
 271 0040 04B0     		add	sp, sp, #16
 272              		@ sp needed for prologue
 273 0042 80BD     		pop	{r7, pc}
 274              	.L16:
 275              		.align	2
 276              	.L15:
 277 0044 00F00FF8 		.word	-133173248
 278              		.cfi_endproc
 279              	.LFE3:
 281              		.section	.text.TRIG2_PutVal,"ax",%progbits
 282              		.align	2
 283              		.global	TRIG2_PutVal
 284              		.code	16
 285              		.thumb_func
 287              	TRIG2_PutVal:
 288              	.LFB4:
 197:../Generated_Code/TRIG2.c **** 
 198:../Generated_Code/TRIG2.c **** /*
 199:../Generated_Code/TRIG2.c **** ** ===================================================================
 200:../Generated_Code/TRIG2.c **** **     Method      :  TRIG2_PutVal (component BitIO_LDD)
 201:../Generated_Code/TRIG2.c **** **
 202:../Generated_Code/TRIG2.c **** **     Description :
 203:../Generated_Code/TRIG2.c **** **         The specified output value is set. If the direction is <b>
 204:../Generated_Code/TRIG2.c **** **         input</b>, the component saves the value to a memory or a
 205:../Generated_Code/TRIG2.c **** **         register and this value will be written to the pin after
 206:../Generated_Code/TRIG2.c **** **         switching to the output mode (using <tt>SetDir(TRUE)</tt>;
 207:../Generated_Code/TRIG2.c **** **         see <a href="BitIOProperties.html#SafeMode">Safe mode</a>
 208:../Generated_Code/TRIG2.c **** **         property for limitations). If the direction is <b>output</b>,
 209:../Generated_Code/TRIG2.c **** **         it writes the value to the pin. (Method is available only if
 210:../Generated_Code/TRIG2.c **** **         the direction = <u><tt>output</tt></u> or <u><tt>
 211:../Generated_Code/TRIG2.c **** **         input/output</tt></u>).
 212:../Generated_Code/TRIG2.c **** **     Parameters  :
 213:../Generated_Code/TRIG2.c **** **         NAME            - DESCRIPTION
 214:../Generated_Code/TRIG2.c **** **       * DeviceDataPtr   - Device data structure
 215:../Generated_Code/TRIG2.c **** **                           pointer returned by <Init> method.
 216:../Generated_Code/TRIG2.c **** **         Val             - Output value. Possible values:
 217:../Generated_Code/TRIG2.c **** **                           <false> - logical "0" (Low level)
 218:../Generated_Code/TRIG2.c **** **                           <true> - logical "1" (High level)
 219:../Generated_Code/TRIG2.c **** **     Returns     : Nothing
 220:../Generated_Code/TRIG2.c **** ** ===================================================================
 221:../Generated_Code/TRIG2.c **** */
 222:../Generated_Code/TRIG2.c **** void TRIG2_PutVal(LDD_TDeviceData *DeviceDataPtr, bool Val)
 223:../Generated_Code/TRIG2.c **** {
 289              		.loc 1 223 0
 290              		.cfi_startproc
 291 0000 80B5     		push	{r7, lr}
 292              	.LCFI12:
 293              		.cfi_def_cfa_offset 8
 294              		.cfi_offset 7, -8
 295              		.cfi_offset 14, -4
 296 0002 82B0     		sub	sp, sp, #8
 297              	.LCFI13:
 298              		.cfi_def_cfa_offset 16
 299 0004 00AF     		add	r7, sp, #0
 300              	.LCFI14:
 301              		.cfi_def_cfa_register 7
 302 0006 7860     		str	r0, [r7, #4]
 303 0008 0A1C     		mov	r2, r1
 304 000a FB1C     		add	r3, r7, #3
 305 000c 1A70     		strb	r2, [r3]
 224:../Generated_Code/TRIG2.c ****   (void)DeviceDataPtr;                 /* Parameter is not used, suppress unused argument warning *
 225:../Generated_Code/TRIG2.c **** 
 226:../Generated_Code/TRIG2.c ****   if (Val) {
 306              		.loc 1 226 0
 307 000e FB1C     		add	r3, r7, #3
 308 0010 1B78     		ldrb	r3, [r3]
 309 0012 002B     		cmp	r3, #0
 310 0014 04D0     		beq	.L18
 227:../Generated_Code/TRIG2.c ****     GPIO_PDD_SetPortDataOutputMask(TRIG2_MODULE_BASE_ADDRESS, TRIG2_PORT_MASK);
 311              		.loc 1 227 0
 312 0016 064B     		ldr	r3, .L20
 313 0018 8022     		mov	r2, #128
 314 001a 9201     		lsl	r2, r2, #6
 315 001c 5A60     		str	r2, [r3, #4]
 316 001e 03E0     		b	.L17
 317              	.L18:
 228:../Generated_Code/TRIG2.c ****   } else { /* !Val */
 229:../Generated_Code/TRIG2.c ****     GPIO_PDD_ClearPortDataOutputMask(TRIG2_MODULE_BASE_ADDRESS, TRIG2_PORT_MASK);
 318              		.loc 1 229 0
 319 0020 034B     		ldr	r3, .L20
 320 0022 8022     		mov	r2, #128
 321 0024 9201     		lsl	r2, r2, #6
 322 0026 9A60     		str	r2, [r3, #8]
 323              	.L17:
 230:../Generated_Code/TRIG2.c ****   } /* !Val */
 231:../Generated_Code/TRIG2.c **** }
 324              		.loc 1 231 0
 325 0028 BD46     		mov	sp, r7
 326 002a 02B0     		add	sp, sp, #8
 327              		@ sp needed for prologue
 328 002c 80BD     		pop	{r7, pc}
 329              	.L21:
 330 002e C046     		.align	2
 331              	.L20:
 332 0030 00F00FF8 		.word	-133173248
 333              		.cfi_endproc
 334              	.LFE4:
 336              		.section	.text.TRIG2_ClrVal,"ax",%progbits
 337              		.align	2
 338              		.global	TRIG2_ClrVal
 339              		.code	16
 340              		.thumb_func
 342              	TRIG2_ClrVal:
 343              	.LFB5:
 232:../Generated_Code/TRIG2.c **** 
 233:../Generated_Code/TRIG2.c **** /*
 234:../Generated_Code/TRIG2.c **** ** ===================================================================
 235:../Generated_Code/TRIG2.c **** **     Method      :  TRIG2_ClrVal (component BitIO_LDD)
 236:../Generated_Code/TRIG2.c **** **
 237:../Generated_Code/TRIG2.c **** **     Description :
 238:../Generated_Code/TRIG2.c **** **         Clears (set to zero) the output value. It is equivalent to
 239:../Generated_Code/TRIG2.c **** **         the [PutVal(FALSE)]. This method is available only if the
 240:../Generated_Code/TRIG2.c **** **         direction = _[output]_ or _[input/output]_.
 241:../Generated_Code/TRIG2.c **** **     Parameters  :
 242:../Generated_Code/TRIG2.c **** **         NAME            - DESCRIPTION
 243:../Generated_Code/TRIG2.c **** **       * DeviceDataPtr   - Pointer to device data
 244:../Generated_Code/TRIG2.c **** **                           structure returned by <Init> method.
 245:../Generated_Code/TRIG2.c **** **     Returns     : Nothing
 246:../Generated_Code/TRIG2.c **** ** ===================================================================
 247:../Generated_Code/TRIG2.c **** */
 248:../Generated_Code/TRIG2.c **** void TRIG2_ClrVal(LDD_TDeviceData *DeviceDataPtr)
 249:../Generated_Code/TRIG2.c **** {
 344              		.loc 1 249 0
 345              		.cfi_startproc
 346 0000 80B5     		push	{r7, lr}
 347              	.LCFI15:
 348              		.cfi_def_cfa_offset 8
 349              		.cfi_offset 7, -8
 350              		.cfi_offset 14, -4
 351 0002 82B0     		sub	sp, sp, #8
 352              	.LCFI16:
 353              		.cfi_def_cfa_offset 16
 354 0004 00AF     		add	r7, sp, #0
 355              	.LCFI17:
 356              		.cfi_def_cfa_register 7
 357 0006 7860     		str	r0, [r7, #4]
 250:../Generated_Code/TRIG2.c ****   (void)DeviceDataPtr;                 /* Parameter is not used, suppress unused argument warning *
 251:../Generated_Code/TRIG2.c **** 
 252:../Generated_Code/TRIG2.c ****   GPIO_PDD_ClearPortDataOutputMask(TRIG2_MODULE_BASE_ADDRESS, TRIG2_PORT_MASK);
 358              		.loc 1 252 0
 359 0008 034B     		ldr	r3, .L23
 360 000a 8022     		mov	r2, #128
 361 000c 9201     		lsl	r2, r2, #6
 362 000e 9A60     		str	r2, [r3, #8]
 253:../Generated_Code/TRIG2.c **** }
 363              		.loc 1 253 0
 364 0010 BD46     		mov	sp, r7
 365 0012 02B0     		add	sp, sp, #8
 366              		@ sp needed for prologue
 367 0014 80BD     		pop	{r7, pc}
 368              	.L24:
 369 0016 C046     		.align	2
 370              	.L23:
 371 0018 00F00FF8 		.word	-133173248
 372              		.cfi_endproc
 373              	.LFE5:
 375              		.section	.text.TRIG2_SetVal,"ax",%progbits
 376              		.align	2
 377              		.global	TRIG2_SetVal
 378              		.code	16
 379              		.thumb_func
 381              	TRIG2_SetVal:
 382              	.LFB6:
 254:../Generated_Code/TRIG2.c **** 
 255:../Generated_Code/TRIG2.c **** /*
 256:../Generated_Code/TRIG2.c **** ** ===================================================================
 257:../Generated_Code/TRIG2.c **** **     Method      :  TRIG2_SetVal (component BitIO_LDD)
 258:../Generated_Code/TRIG2.c **** **
 259:../Generated_Code/TRIG2.c **** **     Description :
 260:../Generated_Code/TRIG2.c **** **         Sets (to one) the output value. It is equivalent to the
 261:../Generated_Code/TRIG2.c **** **         [PutVal(TRUE)]. This method is available only if the
 262:../Generated_Code/TRIG2.c **** **         direction = _[output]_ or _[input/output]_.
 263:../Generated_Code/TRIG2.c **** **     Parameters  :
 264:../Generated_Code/TRIG2.c **** **         NAME            - DESCRIPTION
 265:../Generated_Code/TRIG2.c **** **       * DeviceDataPtr   - Pointer to device data
 266:../Generated_Code/TRIG2.c **** **                           structure returned by <Init> method.
 267:../Generated_Code/TRIG2.c **** **     Returns     : Nothing
 268:../Generated_Code/TRIG2.c **** ** ===================================================================
 269:../Generated_Code/TRIG2.c **** */
 270:../Generated_Code/TRIG2.c **** void TRIG2_SetVal(LDD_TDeviceData *DeviceDataPtr)
 271:../Generated_Code/TRIG2.c **** {
 383              		.loc 1 271 0
 384              		.cfi_startproc
 385 0000 80B5     		push	{r7, lr}
 386              	.LCFI18:
 387              		.cfi_def_cfa_offset 8
 388              		.cfi_offset 7, -8
 389              		.cfi_offset 14, -4
 390 0002 82B0     		sub	sp, sp, #8
 391              	.LCFI19:
 392              		.cfi_def_cfa_offset 16
 393 0004 00AF     		add	r7, sp, #0
 394              	.LCFI20:
 395              		.cfi_def_cfa_register 7
 396 0006 7860     		str	r0, [r7, #4]
 272:../Generated_Code/TRIG2.c ****   (void)DeviceDataPtr;                 /* Parameter is not used, suppress unused argument warning *
 273:../Generated_Code/TRIG2.c **** 
 274:../Generated_Code/TRIG2.c ****   GPIO_PDD_SetPortDataOutputMask(TRIG2_MODULE_BASE_ADDRESS, TRIG2_PORT_MASK);
 397              		.loc 1 274 0
 398 0008 034B     		ldr	r3, .L26
 399 000a 8022     		mov	r2, #128
 400 000c 9201     		lsl	r2, r2, #6
 401 000e 5A60     		str	r2, [r3, #4]
 275:../Generated_Code/TRIG2.c **** }
 402              		.loc 1 275 0
 403 0010 BD46     		mov	sp, r7
 404 0012 02B0     		add	sp, sp, #8
 405              		@ sp needed for prologue
 406 0014 80BD     		pop	{r7, pc}
 407              	.L27:
 408 0016 C046     		.align	2
 409              	.L26:
 410 0018 00F00FF8 		.word	-133173248
 411              		.cfi_endproc
 412              	.LFE6:
 414              		.text
 415              	.Letext0:
 416              		.file 2 "C:/Freescale/CW MCU v10.3/MCU/ARM_GCC_Support/ewl/EWL_C/include/cstdint"
 417              		.file 3 "../Generated_Code/PE_Types.h"
 418              		.file 4 "../Generated_Code/IO_Map.h"
 419              		.file 5 "../Generated_Code/PE_LDD.h"
 420              		.file 6 "C:/Users/LARM/workspace/MQX-Lite + SPI + Motor + Ultrassom/MQXLITE/psp/cortex_m/psptypes.